 main_win

 Timestamp is 6535fb73 (Mon Oct 23 07:49:55 2023)

 Preferred load address is 0000000140000000

 Start         Length     Name                   Class
 0001:00000000 0004b8c0H .text$mn                CODE
 0001:0004b8c0 00000040H .text$mn$00             CODE
 0001:0004b900 00000520H .text$x                 CODE
 0002:00000000 000004a0H .idata$5                DATA
 0002:000004a0 00000038H .00cfg                  DATA
 0002:000004d8 00000008H .CRT$XCA                DATA
 0002:000004e0 00000008H .CRT$XCAA               DATA
 0002:000004e8 00000008H .CRT$XCZ                DATA
 0002:000004f0 00000008H .CRT$XIA                DATA
 0002:000004f8 00000008H .CRT$XIAA               DATA
 0002:00000500 00000008H .CRT$XIAC               DATA
 0002:00000508 00000020H .CRT$XIC                DATA
 0002:00000528 00000008H .CRT$XIZ                DATA
 0002:00000530 00000008H .CRT$XLA                DATA
 0002:00000538 00000008H .CRT$XLZ                DATA
 0002:00000540 00000008H .CRT$XPA                DATA
 0002:00000548 00000010H .CRT$XPX                DATA
 0002:00000558 00000008H .CRT$XPXA               DATA
 0002:00000560 00000008H .CRT$XPZ                DATA
 0002:00000568 00000008H .CRT$XTA                DATA
 0002:00000570 00000010H .CRT$XTZ                DATA
 0002:00000578 00000000H .gehcont$y              DATA
 0002:00000578 00000000H .gfids$y                DATA
 0002:00000580 0000cd80H .rdata                  DATA
 0002:0000d300 00000000H .rdata$CastGuardVftablesA DATA
 0002:0000d300 00000000H .rdata$CastGuardVftablesC DATA
 0002:0000d300 00000028H .rdata$T                DATA
 0002:0000d328 0000016cH .rdata$r                DATA
 0002:0000d494 00000320H .rdata$voltmd           DATA
 0002:0000d7b4 000003acH .rdata$zzzdbg           DATA
 0002:0000db60 00000008H .rtc$IAA                DATA
 0002:0000db68 00000008H .rtc$IZZ                DATA
 0002:0000db70 00000008H .rtc$TAA                DATA
 0002:0000db78 00000008H .rtc$TZZ                DATA
 0002:0000db80 00000008H .tls                    DATA
 0002:0000db88 00000020H .tls$                   DATA
 0002:0000dba8 00000008H .tls$ZZZ                DATA
 0002:0000dbb0 000022e8H .xdata                  DATA
 0002:0000fe98 00000084H .xdata$x                DATA
 0002:0000ff1c 00000000H .edata                  DATA
 0002:0000ff1c 00000050H .idata$2                DATA
 0002:0000ff6c 00000014H .idata$3                DATA
 0002:0000ff80 000004a0H .idata$4                DATA
 0002:00010420 00000ad6H .idata$6                DATA
 0003:00000000 00000b50H .data                   DATA
 0003:00000b50 00000050H .data$r                 DATA
 0003:00000ba0 00000020H .data$rs                DATA
 0003:00000bc0 0003c608H .bss                    DATA
 0004:00000000 00002a24H .pdata                  DATA
 0005:00000000 0000015cH _RDATA                  DATA

  Address         Publics by Value              Rva+Base               Lib:Object

 0000:00000000       __AbsoluteZero             0000000000000000     <absolute>
 0000:00000000       ___safe_se_handler_count   0000000000000000     <absolute>
 0000:00000000       ___safe_se_handler_table   0000000000000000     <absolute>
 0000:00000000       __arm64x_extra_rfe_table   0000000000000000     <absolute>
 0000:00000000       __arm64x_extra_rfe_table_size 0000000000000000     <absolute>
 0000:00000000       __arm64x_native_entrypoint 0000000000000000     <absolute>
 0000:00000000       __arm64x_redirection_metadata 0000000000000000     <absolute>
 0000:00000000       __arm64x_redirection_metadata_count 0000000000000000     <absolute>
 0000:00000000       __dynamic_value_reloc_table 0000000000000000     <absolute>
 0000:00000000       __enclave_config           0000000000000000     <absolute>
 0000:00000000       __guard_check_icall_a64n_fptr 0000000000000000     <absolute>
 0000:00000000       __guard_eh_cont_count      0000000000000000     <absolute>
 0000:00000000       __guard_eh_cont_table      0000000000000000     <absolute>
 0000:00000000       __guard_fids_count         0000000000000000     <absolute>
 0000:00000000       __guard_fids_table         0000000000000000     <absolute>
 0000:00000000       __guard_iat_count          0000000000000000     <absolute>
 0000:00000000       __guard_iat_table          0000000000000000     <absolute>
 0000:00000000       __guard_longjmp_count      0000000000000000     <absolute>
 0000:00000000       __guard_longjmp_table      0000000000000000     <absolute>
 0000:00000000       __hybrid_auxiliary_iat     0000000000000000     <absolute>
 0000:00000000       __hybrid_auxiliary_iat_copy 0000000000000000     <absolute>
 0000:00000000       __hybrid_code_map          0000000000000000     <absolute>
 0000:00000000       __hybrid_code_map_count    0000000000000000     <absolute>
 0000:00000000       __x64_code_ranges_to_entry_points 0000000000000000     <absolute>
 0000:00000000       __x64_code_ranges_to_entry_points_count 0000000000000000     <absolute>
 0000:00000100       __guard_flags              0000000000000100     <absolute>
 0000:00000000       __ImageBase                0000000140000000     <linker-defined>
 0001:00000000       WinMain                    0000000140001000 f   main_win.obj
 0001:00000030       stbi_load_from_memory      0000000140001030 f   main_win.obj
 0001:000000d0       stbi_load_from_callbacks   00000001400010d0 f   main_win.obj
 0001:00000170       stbi_load                  0000000140001170 f   main_win.obj
 0001:00000220       stbi_load_from_file        0000000140001220 f   main_win.obj
 0001:000002f0       stbi_load_gif_from_memory  00000001400012f0 f   main_win.obj
 0001:00000440       stbi_load_16_from_memory   0000000140001440 f   main_win.obj
 0001:000004e0       stbi_load_16_from_callbacks 00000001400014e0 f   main_win.obj
 0001:00000580       stbi_load_16               0000000140001580 f   main_win.obj
 0001:00000630       stbi_load_from_file_16     0000000140001630 f   main_win.obj
 0001:00000700       stbi_loadf_from_memory     0000000140001700 f   main_win.obj
 0001:000007a0       stbi_loadf_from_callbacks  00000001400017a0 f   main_win.obj
 0001:00000840       stbi_loadf                 0000000140001840 f   main_win.obj
 0001:000008f0       stbi_loadf_from_file       00000001400018f0 f   main_win.obj
 0001:00000980       stbi_hdr_to_ldr_gamma      0000000140001980 f   main_win.obj
 0001:000009b0       stbi_hdr_to_ldr_scale      00000001400019b0 f   main_win.obj
 0001:000009e0       stbi_ldr_to_hdr_gamma      00000001400019e0 f   main_win.obj
 0001:00000a00       stbi_ldr_to_hdr_scale      0000000140001a00 f   main_win.obj
 0001:00000a20       stbi_is_hdr_from_callbacks 0000000140001a20 f   main_win.obj
 0001:00000a90       stbi_is_hdr_from_memory    0000000140001a90 f   main_win.obj
 0001:00000b00       stbi_is_hdr                0000000140001b00 f   main_win.obj
 0001:00000b60       stbi_is_hdr_from_file      0000000140001b60 f   main_win.obj
 0001:00000bf0       stbi_failure_reason        0000000140001bf0 f   main_win.obj
 0001:00000c20       stbi_image_free            0000000140001c20 f   main_win.obj
 0001:00000c40       stbi_info_from_memory      0000000140001c40 f   main_win.obj
 0001:00000cd0       stbi_info_from_callbacks   0000000140001cd0 f   main_win.obj
 0001:00000d60       stbi_is_16_bit_from_memory 0000000140001d60 f   main_win.obj
 0001:00000dd0       stbi_is_16_bit_from_callbacks 0000000140001dd0 f   main_win.obj
 0001:00000e40       stbi_info                  0000000140001e40 f   main_win.obj
 0001:00000ec0       stbi_info_from_file        0000000140001ec0 f   main_win.obj
 0001:00000f70       stbi_is_16_bit             0000000140001f70 f   main_win.obj
 0001:00000fd0       stbi_is_16_bit_from_file   0000000140001fd0 f   main_win.obj
 0001:00001060       stbi_set_unpremultiply_on_load 0000000140002060 f   main_win.obj
 0001:00001080       stbi_convert_iphone_png_to_rgb 0000000140002080 f   main_win.obj
 0001:000010a0       stbi_set_flip_vertically_on_load 00000001400020a0 f   main_win.obj
 0001:000010c0       stbi_convert_iphone_png_to_rgb_thread 00000001400020c0 f   main_win.obj
 0001:00001110       stbi_set_flip_vertically_on_load_thread 0000000140002110 f   main_win.obj
 0001:00001160       stbi_zlib_decode_malloc_guesssize 0000000140002160 f   main_win.obj
 0001:00001260       stbi_zlib_decode_malloc_guesssize_headerflag 0000000140002260 f   main_win.obj
 0001:00001370       stbi_zlib_decode_malloc    0000000140002370 f   main_win.obj
 0001:000013b0       stbi_zlib_decode_buffer    00000001400023b0 f   main_win.obj
 0001:00001470       stbi_zlib_decode_noheader_malloc 0000000140002470 f   main_win.obj
 0001:00001570       stbi_zlib_decode_noheader_buffer 0000000140002570 f   main_win.obj
 0001:00016bd0       ?stbi__unpremultiply_on_load_thread@@YAXH@Z 0000000140017bd0 f   main_win.obj
 0001:0001b140       ?m4Ortho@@YAPEAMPEAMMMMMMM@Z 000000014001c140 f   main_win.obj
 0001:0001b2c0       ?LogLog@@YAXHPEBDH0ZZ      000000014001c2c0 f   main_win.obj
 0001:0001b370       ?vlog@@YAXPEAUlogEvent@@@Z 000000014001c370 f   main_win.obj
 0001:0001b430       ?vlog_ms@@YAXPEAUlogEvent@@@Z 000000014001c430 f   main_win.obj
 0001:0001b5d0       ?v2Clamp@@YAPEAMPEAM0@Z    000000014001c5d0 f   main_win.obj
 0001:0001b780       ?v4Set@@YAPEAMPEAMMMMM@Z   000000014001c780 f   main_win.obj
 0001:0001b810       ?v4Copy@@YAPEAMPEAM0@Z     000000014001c810 f   main_win.obj
 0001:0001b8d0       ?rectOverlaps@@YACPEAM0@Z  000000014001c8d0 f   main_win.obj
 0001:0001bc20       ?rectContainedBy@@YACPEAM0@Z 000000014001cc20 f   main_win.obj
 0001:0001be80       ?rectGetOverlap@@YAPEAMPEAM00@Z 000000014001ce80 f   main_win.obj
 0001:0001c190       ?rectUVCull@@YAPEAMPEAM00@Z 000000014001d190 f   main_win.obj
 0001:0001caa0       ?print_mat4@@YAXU?$mat@$03$03M$0A@@glm@@@Z 000000014001daa0 f   main_win.obj
 0001:0001cd70       ?matrix_look_at@@YA?AU?$mat@$03$03M$0A@@glm@@U?$vec@$02M$0A@@2@00@Z 000000014001dd70 f   main_win.obj
 0001:0001cf20       ?_matrix_look_at_broken_y@@YA?AU?$mat@$03$03M$0A@@glm@@U?$vec@$02M$0A@@2@00@Z 000000014001df20 f   main_win.obj
 0001:0001d0a0       ?flycamera_init@@YAXPEAUCamera@@_NMMMM@Z 000000014001e0a0 f   main_win.obj
 0001:0001d110       ?nuCameraInit@@YAXPEAUCamera@@MMMM@Z 000000014001e110 f   main_win.obj
 0001:0001d180       ?flycamera_process_mouse_movement@@YAXPEAUCamera@@MM@Z 000000014001e180 f   main_win.obj
 0001:0001d240       ?flycamera_process_mouse_scroll@@YAXPEAUCamera@@M@Z 000000014001e240 f   main_win.obj
 0001:0001d2e0       ?flycamera_process_movement@@YAXPEAUCamera@@HH@Z 000000014001e2e0 f   main_win.obj
 0001:0001d330       ?flycamera_update@@YAXPEAUCamera@@M@Z 000000014001e330 f   main_win.obj
 0001:0001d480       ?camViewMat@@YA?AU?$mat@$03$03M$0A@@glm@@PEAUCamera@@@Z 000000014001e480 f   main_win.obj
 0001:0001d610       ?camProjMat@@YA?AU?$mat@$03$03M$0A@@glm@@PEAUCamera@@@Z 000000014001e610 f   main_win.obj
 0001:0001d680       ?flycamera_get_weird_view_matrix@@YA?AU?$mat@$03$03M$0A@@glm@@PEAUCamera@@@Z 000000014001e680 f   main_win.obj
 0001:0001d7d0       ?camViewPosition@@YA?AU?$vec@$02M$0A@@glm@@PEAUCamera@@@Z 000000014001e7d0 f   main_win.obj
 0001:0001d880       ?camViewDirection@@YA?AU?$vec@$02M$0A@@glm@@PEAUCamera@@@Z 000000014001e880 f   main_win.obj
 0001:0001d930       ?RenderTextureLoad@@YAXPEAUTexture@@PEBD@Z 000000014001e930 f   main_win.obj
 0001:0001db40       ?RenderTextureFree@@YAXI@Z 000000014001eb40 f   main_win.obj
 0001:0001db70       ?RenderInit@@YAXPEAURenderer@@@Z 000000014001eb70 f   main_win.obj
 0001:0001e110       ?printShaderLog@@YAXI@Z    000000014001f110 f   main_win.obj
 0001:0001e1f0       ?printProgramLog@@YAXI@Z   000000014001f1f0 f   main_win.obj
 0001:0001e2d0       ?RenderFree@@YAXPEAURenderer@@@Z 000000014001f2d0 f   main_win.obj
 0001:0001e330       ?RenderBeginFrame@@YAXPEAURenderer@@@Z 000000014001f330 f   main_win.obj
 0001:0001e370       ?RenderEndFrame@@YAXPEAURenderer@@@Z 000000014001f370 f   main_win.obj
 0001:0001e460       ?RenderPushTriangle@@YAXPEAURenderer@@PEAM11111111I@Z 000000014001f460 f   main_win.obj
 0001:0001ec10       ?shader_init@@YA_NPEAUshader_s@@PEBD1@Z 000000014001fc10 f   main_win.obj
 0001:0001ee90       ?shader_clean@@YAXPEAUshader_s@@@Z 000000014001fe90 f   main_win.obj
 0001:0001eec0       ?shader_use@@YAXPEAUshader_s@@@Z 000000014001fec0 f   main_win.obj
 0001:0001eef0       ?shader_4f@@YAXPEAUshader_s@@PEBDMMMM@Z 000000014001fef0 f   main_win.obj
 0001:0001ef60       ?shader_3f@@YAXPEAUshader_s@@PEBDMMM@Z 000000014001ff60 f   main_win.obj
 0001:0001efc0       ?shader_1i@@YAXPEAUshader_s@@PEBDH@Z 000000014001ffc0 f   main_win.obj
 0001:0001f010       ?shader_1f@@YAXPEAUshader_s@@PEBDM@Z 0000000140020010 f   main_win.obj
 0001:0001f060       ?shader_mat4fv@@YAXPEAUshader_s@@PEBDPEBM@Z 0000000140020060 f   main_win.obj
 0001:0001f0c0       ?TileMapLoadCSV@@YAXPEAUTileMap@@PEBDPEAUTexture@@II@Z 00000001400200c0 f   main_win.obj
 0001:0001f1f0       ?Read2DMap@@YAXPEBDIPEAHIIPEAI2@Z 00000001400201f0 f   main_win.obj
 0001:0001f680       ?RenderExInit@@YAXPEAURendererEx@@@Z 0000000140020680 f   main_win.obj
 0001:0001f6e0       ?RenderWhiteTexture@@YAIXZ 00000001400206e0 f   main_win.obj
 0001:0001f7e0       ?RenderExFree@@YAXPEAURendererEx@@@Z 00000001400207e0 f   main_win.obj
 0001:0001f810       ?RenderPushQuadColor@@YAXPEAURendererEx@@PEAM1@Z 0000000140020810 f   main_win.obj
 0001:0001fbc0       ?RenderPushQuadTex@@YAXPEAURendererEx@@PEAMI1@Z 0000000140020bc0 f   main_win.obj
 0001:00020090       ?RenderPushQuadSubTex@@YAXPEAURendererEx@@PEAM1I1@Z 0000000140021090 f   main_win.obj
 0001:000205a0       ?RenderPushAtlasTile@@YAXPEAURendererEx@@PEAMPEAUTileMap@@I1@Z 00000001400215a0 f   main_win.obj
 0001:00020640       ?RenderPushString@@YAXPEAURendererEx@@PEAMPEBDPEAUTileMap@@1@Z 0000000140021640 f   main_win.obj
 0001:000207c0       ?RenderPushQuadSubTexOrigRot@@YAXPEAURendererEx@@PEAM1I11M@Z 00000001400217c0 f   main_win.obj
 0001:00020e70       ?ProjectilePoolInit@@YAXPEAUProjectilePool@@@Z 0000000140021e70 f   main_win.obj
 0001:00020f50       ?ProjectilePoolAlloc@@YAPEAUProjectile@@PEAUProjectilePool@@@Z 0000000140021f50 f   main_win.obj
 0001:00021020       ?ProjectilePoolFree@@YAXPEAUProjectilePool@@PEAUProjectile@@@Z 0000000140022020 f   main_win.obj
 0001:000210f0       ?ProjectilePoolCanAlloc@@YACPEAUProjectilePool@@@Z 00000001400220f0 f   main_win.obj
 0001:00021130       ?towerNew@@YAXPEAUTower@@PEAM@Z 0000000140022130 f   main_win.obj
 0001:000234a0       ?timeLeft@@YAIXZ           00000001400244a0 f   main_win.obj
 0001:000234e0       ?run@@YAHXZ                00000001400244e0 f   main_win.obj
 0001:00023750       ??$?0HHHH@?$vec@$03M$0A@@glm@@QEAA@HHHH@Z 0000000140024750 f i main_win.obj
 0001:000237b0       ??$?0HHHM@?$vec@$03M$0A@@glm@@QEAA@HHHM@Z 00000001400247b0 f i main_win.obj
 0001:00023810       ??$?0HHMH@?$vec@$03M$0A@@glm@@QEAA@HHMH@Z 0000000140024810 f i main_win.obj
 0001:00023870       ??$?0HMH@?$vec@$02M$0A@@glm@@QEAA@HMH@Z 0000000140024870 f i main_win.obj
 0001:000238c0       ??$?0HMHH@?$vec@$03M$0A@@glm@@QEAA@HMHH@Z 00000001400248c0 f i main_win.obj
 0001:00023920       ??$?0M$0A@@?$vec@$02M$0A@@glm@@QEAA@AEBU?$vec@$03M$0A@@1@@Z 0000000140024920 f i main_win.obj
 0001:00023970       ??$?0MH$0A@@?$vec@$03M$0A@@glm@@QEAA@AEBU?$vec@$02M$0A@@1@H@Z 0000000140024970 f i main_win.obj
 0001:000239d0       ??$?0MHHH@?$vec@$03M$0A@@glm@@QEAA@MHHH@Z 00000001400249d0 f i main_win.obj
 0001:00023a30       ??$?0MHM@?$vec@$02M$0A@@glm@@QEAA@MHM@Z 0000000140024a30 f i main_win.obj
 0001:00023a80       ??$?0MM$0A@@?$vec@$03M$0A@@glm@@QEAA@AEBU?$vec@$02M$0A@@1@M@Z 0000000140024a80 f i main_win.obj
 0001:00023ae0       ??$?DM$0A@@glm@@YA?AU?$mat@$03$03M$0A@@0@AEBU10@0@Z 0000000140024ae0 f i main_win.obj
 0001:00024110       ??$?DM$0A@@glm@@YA?AU?$vec@$02M$0A@@0@AEBU10@0@Z 0000000140025110 f i main_win.obj
 0001:00024190       ??$?DM$0A@@glm@@YA?AU?$vec@$02M$0A@@0@AEBU10@M@Z 0000000140025190 f i main_win.obj
 0001:00024200       ??$?DM$0A@@glm@@YA?AU?$vec@$03M$0A@@0@AEBU10@0@Z 0000000140025200 f i main_win.obj
 0001:00024260       ??$?DM$0A@@glm@@YA?AU?$vec@$03M$0A@@0@AEBU10@AEBM@Z 0000000140025260 f i main_win.obj
 0001:000242c0       ??$?DM$0A@@glm@@YA?AU?$vec@$03M$0A@@0@AEBU?$mat@$03$03M$0A@@0@AEBU10@@Z 00000001400252c0 f i main_win.obj
 0001:00024470       ??$?GM$0A@@glm@@YA?AU?$vec@$02M$0A@@0@AEBU10@0@Z 0000000140025470 f i main_win.obj
 0001:000244f0       ??$?GM$0A@@glm@@YA?AU?$vec@$02M$0A@@0@AEBU10@@Z 00000001400254f0 f i main_win.obj
 0001:00024560       ??$?HM$0A@@glm@@YA?AU?$vec@$02M$0A@@0@AEBU10@0@Z 0000000140025560 f i main_win.obj
 0001:000245e0       ??$?HM$0A@@glm@@YA?AU?$vec@$03M$0A@@0@AEBU10@0@Z 00000001400255e0 f i main_win.obj
 0001:00024640       ??$?XM@?$vec@$03M$0A@@glm@@QEAAAEAU01@AEBU01@@Z 0000000140025640 f i main_win.obj
 0001:000246a0       ??$?XM@?$vec@$03M$0A@@glm@@QEAAAEAU01@M@Z 00000001400256a0 f i main_win.obj
 0001:000246f0       ??$?YM@?$vec@$02M$0A@@glm@@QEAAAEAU01@AEBU01@@Z 00000001400256f0 f i main_win.obj
 0001:00024760       ??$?YM@?$vec@$03M$0A@@glm@@QEAAAEAU01@AEBU01@@Z 0000000140025760 f i main_win.obj
 0001:000247c0       ??$abs@M@glm@@YAMM@Z       00000001400257c0 f i main_win.obj
 0001:000247e0       ??$cross@M$0A@@glm@@YA?AU?$vec@$02M$0A@@0@AEBU10@0@Z 00000001400257e0 f i main_win.obj
 0001:00024820       ??$dot@$02M$0A@@glm@@YAMAEBU?$vec@$02M$0A@@0@0@Z 0000000140025820 f i main_win.obj
 0001:00024850       ??$inversesqrt@M@glm@@YAMM@Z 0000000140025850 f i main_win.obj
 0001:00024880       ??$length@$02M$0A@@glm@@YAMAEBU?$vec@$02M$0A@@0@@Z 0000000140025880 f i main_win.obj
 0001:000248a0       ??$normalize@$02M$0A@@glm@@YA?AU?$vec@$02M$0A@@0@AEBU10@@Z 00000001400258a0 f i main_win.obj
 0001:000248d0       ??$ortho@M@glm@@YA?AU?$mat@$03$03M$0A@@0@MMMMMM@Z 00000001400258d0 f i main_win.obj
 0001:00024940       ??$orthoRH_NO@M@glm@@YA?AU?$mat@$03$03M$0A@@0@MMMMMM@Z 0000000140025940 f i main_win.obj
 0001:00024bc0       ??$perspective@M@glm@@YA?AU?$mat@$03$03M$0A@@0@MMMM@Z 0000000140025bc0 f i main_win.obj
 0001:00024c10       ??$perspectiveRH_NO@M@glm@@YA?AU?$mat@$03$03M$0A@@0@MMMM@Z 0000000140025c10 f i main_win.obj
 0001:00024e60       ??$radians@M@glm@@YAMM@Z   0000000140025e60 f i main_win.obj
 0001:00024e80       ??$sprintf_s@$0BE@@@YAHAEAY0BE@DPEBDZZ 0000000140025e80 f i main_win.obj
 0001:00024ec0       ??$sprintf_s@$0BI@@@YAHAEAY0BI@DPEBDZZ 0000000140025ec0 f i main_win.obj
 0001:00024f00       ??$translate@M$0A@@glm@@YA?AU?$mat@$03$03M$0A@@0@AEBU10@AEBU?$vec@$02M$0A@@0@@Z 0000000140025f00 f i main_win.obj
 0001:000250d0       ??$transpose@$02$02M$0A@@glm@@YA?AU?$mat@$02$02M$0A@@0@AEBU10@@Z 00000001400260d0 f i main_win.obj
 0001:00025100       ??$value_ptr@M$0A@@glm@@YAPEAMAEAU?$mat@$03$03M$0A@@0@@Z 0000000140026100 f i main_win.obj
 0001:00025120       ??$value_ptr@M$0A@@glm@@YAPEBMAEBU?$mat@$03$03M$0A@@0@@Z 0000000140026120 f i main_win.obj
 0001:00025140       ??0?$mat@$02$02M$0A@@glm@@QEAA@AEBU?$vec@$02M$0A@@1@00@Z 0000000140026140 f i main_win.obj
 0001:000251f0       ??0?$mat@$03$03M$0A@@glm@@QEAA@AEBM@Z 00000001400261f0 f i main_win.obj
 0001:000252b0       ??0?$mat@$03$03M$0A@@glm@@QEAA@AEBU?$mat@$02$02M$0A@@1@@Z 00000001400262b0 f i main_win.obj
 0001:00025350       ??0?$vec@$02M$0A@@glm@@QEAA@M@Z 0000000140026350 f i main_win.obj
 0001:00025390       ??0?$vec@$02M$0A@@glm@@QEAA@MMM@Z 0000000140026390 f i main_win.obj
 0001:000253e0       ??0?$vec@$03M$0A@@glm@@QEAA@M@Z 00000001400263e0 f i main_win.obj
 0001:00025430       ??0?$vec@$03M$0A@@glm@@QEAA@MMMM@Z 0000000140026430 f i main_win.obj
 0001:00025490       ??A?$mat@$02$02M$0A@@glm@@QEAAAEAU?$vec@$02M$0A@@1@H@Z 0000000140026490 f i main_win.obj
 0001:000254e0       ??A?$mat@$02$02M$0A@@glm@@QEBAAEBU?$vec@$02M$0A@@1@H@Z 00000001400264e0 f i main_win.obj
 0001:00025530       ??A?$mat@$03$03M$0A@@glm@@QEAAAEAU?$vec@$03M$0A@@1@H@Z 0000000140026530 f i main_win.obj
 0001:00025580       ??A?$mat@$03$03M$0A@@glm@@QEBAAEBU?$vec@$03M$0A@@1@H@Z 0000000140026580 f i main_win.obj
 0001:000255d0       ??A?$vec@$02M$0A@@glm@@QEAAAEAMH@Z 00000001400265d0 f i main_win.obj
 0001:00025650       ??A?$vec@$02M$0A@@glm@@QEBAAEBMH@Z 0000000140026650 f i main_win.obj
 0001:000256d0       ??A?$vec@$03M$0A@@glm@@QEAAAEAMH@Z 00000001400266d0 f i main_win.obj
 0001:00025760       ??A?$vec@$03M$0A@@glm@@QEBAAEBMH@Z 0000000140026760 f i main_win.obj
 0001:000257f0       ?abs@@YAMM@Z               00000001400267f0 f i main_win.obj
 0001:00025810       ?atan2@@YAMMM@Z            0000000140026810 f i main_win.obj
 0001:00025840       ?call@?$compute_abs@M$00@detail@glm@@SAMM@Z 0000000140026840 f i main_win.obj
 0001:00025890       ?call@?$compute_cross@M$0A@$0A@@detail@glm@@SA?AU?$vec@$02M$0A@@3@AEBU43@0@Z 0000000140026890 f i main_win.obj
 0001:00025950       ?call@?$compute_dot@U?$vec@$02M$0A@@glm@@M$0A@@detail@glm@@SAMAEBU?$vec@$02M$0A@@3@0@Z 0000000140026950 f i main_win.obj
 0001:00025990       ?call@?$compute_length@$02M$0A@$0A@@detail@glm@@SAMAEBU?$vec@$02M$0A@@3@@Z 0000000140026990 f i main_win.obj
 0001:000259c0       ?call@?$compute_normalize@$02M$0A@$0A@@detail@glm@@SA?AU?$vec@$02M$0A@@3@AEBU43@@Z 00000001400269c0 f i main_win.obj
 0001:00025a00       ?call@?$compute_transpose@$02$02M$0A@$0A@@detail@glm@@SA?AU?$mat@$02$02M$0A@@3@AEBU43@@Z 0000000140026a00 f i main_win.obj
 0001:00025cf0       ?call@?$compute_vec4_add@M$0A@$0A@@detail@glm@@SA?AU?$vec@$03M$0A@@3@AEBU43@0@Z 0000000140026cf0 f i main_win.obj
 0001:00025d80       ?call@?$compute_vec4_mul@M$0A@$0A@@detail@glm@@SA?AU?$vec@$03M$0A@@3@AEBU43@0@Z 0000000140026d80 f i main_win.obj
 0001:00025e10       ?cos@@YAMM@Z               0000000140026e10 f i main_win.obj
 0001:00025e30       ?epsilon@?$numeric_limits@M@std@@SAMXZ 0000000140026e30 f i main_win.obj
 0001:00025e40       ?fmod@@YAMMM@Z             0000000140026e40 f i main_win.obj
 0001:00025e70       ?ldexp@@YAMMH@Z            0000000140026e70 f i main_win.obj
 0001:00025ea0       ?length@?$mat@$02$02M$0A@@glm@@SAHXZ 0000000140026ea0 f i main_win.obj
 0001:00025ea0       ?length@?$vec@$02M$0A@@glm@@SAHXZ 0000000140026ea0 f i main_win.obj
 0001:00025eb0       ?length@?$mat@$03$03M$0A@@glm@@SAHXZ 0000000140026eb0 f i main_win.obj
 0001:00025eb0       ?length@?$vec@$03M$0A@@glm@@SAHXZ 0000000140026eb0 f i main_win.obj
 0001:00025ec0       ?pow@@YAMMM@Z              0000000140026ec0 f i main_win.obj
 0001:00025ef0       ?sin@@YAMM@Z               0000000140026ef0 f i main_win.obj
 0001:00025f10       ?sqrt@@YAMM@Z              0000000140026f10 f i main_win.obj
 0001:00025f30       ?tan@@YAMM@Z               0000000140026f30 f i main_win.obj
 0001:00025f50       __local_stdio_printf_options 0000000140026f50 f i main_win.obj
 0001:00025f60       __local_stdio_scanf_options 0000000140026f60 f i main_win.obj
 0001:00025f70       _vfprintf_l                0000000140026f70 f i main_win.obj
 0001:00025fc0       _vsnprintf_s               0000000140026fc0 f i main_win.obj
 0001:00026010       _vsnprintf_s_l             0000000140027010 f i main_win.obj
 0001:00026090       _vsprintf_s_l              0000000140027090 f i main_win.obj
 0001:00026100       _vsscanf_s_l               0000000140027100 f i main_win.obj
 0001:00026160       fabsf                      0000000140027160 f i main_win.obj
 0001:00026180       fprintf                    0000000140027180 f i main_win.obj
 0001:000261d0       ldexpf                     00000001400271d0 f i main_win.obj
 0001:00026200       printf                     0000000140027200 f i main_win.obj
 0001:00026260       snprintf                   0000000140027260 f i main_win.obj
 0001:000262c0       sscanf_s                   00000001400272c0 f i main_win.obj
 0001:00026310       vfprintf                   0000000140027310 f i main_win.obj
 0001:00026340       vsnprintf                  0000000140027340 f i main_win.obj
 0001:000263c0       vsprintf_s                 00000001400273c0 f i main_win.obj
 0001:00026400       vsscanf_s                  0000000140027400 f i main_win.obj
 0001:0002642f       SDL_free                   000000014002742f f   SDL2:SDL2.dll
 0001:00026435       SDL_GetError               0000000140027435 f   SDL2:SDL2.dll
 0001:0002643b       SDL_LoadFile               000000014002743b f   SDL2:SDL2.dll
 0001:00026441       SDL_CreateWindow           0000000140027441 f   SDL2:SDL2.dll
 0001:00026447       SDL_DestroyWindow          0000000140027447 f   SDL2:SDL2.dll
 0001:0002644d       SDL_GL_SetAttribute        000000014002744d f   SDL2:SDL2.dll
 0001:00026453       SDL_GL_CreateContext       0000000140027453 f   SDL2:SDL2.dll
 0001:00026459       SDL_GL_SetSwapInterval     0000000140027459 f   SDL2:SDL2.dll
 0001:0002645f       SDL_GL_SwapWindow          000000014002745f f   SDL2:SDL2.dll
 0001:00026465       SDL_GL_DeleteContext       0000000140027465 f   SDL2:SDL2.dll
 0001:0002646b       SDL_GetMouseState          000000014002746b f   SDL2:SDL2.dll
 0001:00026471       SDL_PollEvent              0000000140027471 f   SDL2:SDL2.dll
 0001:00026477       SDL_GetTicks               0000000140027477 f   SDL2:SDL2.dll
 0001:0002647d       SDL_Delay                  000000014002747d f   SDL2:SDL2.dll
 0001:00026483       SDL_Init                   0000000140027483 f   SDL2:SDL2.dll
 0001:00026489       SDL_Quit                   0000000140027489 f   SDL2:SDL2.dll
 0001:00026490       __raise_securityfailure    0000000140027490 f   LIBCMT:gs_report.obj
 0001:000264c4       __report_gsfailure         00000001400274c4 f   LIBCMT:gs_report.obj
 0001:00026598       __report_rangecheckfailure 0000000140027598 f   LIBCMT:gs_report.obj
 0001:000265ac       __report_securityfailure   00000001400275ac f   LIBCMT:gs_report.obj
 0001:0002672c       __GSHandlerCheck           000000014002772c f   LIBCMT:gshandler.obj
 0001:0002674c       __GSHandlerCheckCommon     000000014002774c f   LIBCMT:gshandler.obj
 0001:000267c0       __chkstk                   00000001400277c0 f   LIBCMT:chkstk.obj
 0001:000267c0       _alloca_probe              00000001400277c0 f   LIBCMT:chkstk.obj
 0001:00026820       __security_check_cookie    0000000140027820 f   LIBCMT:amdsecgs.obj
 0001:00026a98       WinMainCRTStartup          0000000140027a98 f   LIBCMT:exe_winmain.obj
 0001:00026aac       __scrt_acquire_startup_lock 0000000140027aac f   LIBCMT:utility.obj
 0001:00026ae8       __scrt_initialize_crt      0000000140027ae8 f   LIBCMT:utility.obj
 0001:00026b34       __scrt_initialize_onexit_tables 0000000140027b34 f   LIBCMT:utility.obj
 0001:00026bc0       __scrt_is_nonwritable_in_current_image 0000000140027bc0 f   LIBCMT:utility.obj
 0001:00026c58       __scrt_release_startup_lock 0000000140027c58 f   LIBCMT:utility.obj
 0001:00026c7c       __scrt_uninitialize_crt    0000000140027c7c f   LIBCMT:utility.obj
 0001:00026ca8       _onexit                    0000000140027ca8 f   LIBCMT:utility.obj
 0001:00026ce4       atexit                     0000000140027ce4 f   LIBCMT:utility.obj
 0001:00026cfc       __security_init_cookie     0000000140027cfc f   LIBCMT:gs_support.obj
 0001:00026da8       __scrt_exe_initialize_mta  0000000140027da8 f   LIBCMT:utility_desktop.obj
 0001:00026da8       __scrt_initialize_winrt    0000000140027da8 f   LIBCMT:utility_desktop.obj
 0001:00026da8       __scrt_stub_for_initialize_mta 0000000140027da8 f   LIBCMT:utility_desktop.obj
 0001:00026da8       _get_startup_commit_mode   0000000140027da8 f   LIBCMT:commit_mode.obj
 0001:00026da8       _get_startup_new_mode      0000000140027da8 f   LIBCMT:new_mode.obj
 0001:00026da8       _get_startup_thread_locale_mode 0000000140027da8 f   LIBCMT:thread_locale.obj
 0001:00026da8       _matherr                   0000000140027da8 f   LIBCMT:matherr.obj
 0001:00026dac       _get_startup_argv_mode     0000000140027dac f   LIBCMT:argv_mode.obj
 0001:00026db4       _get_startup_file_mode     0000000140027db4 f   LIBCMT:file_mode.obj
 0001:00026dbc       ?__scrt_initialize_type_info@@YAXXZ 0000000140027dbc f   LIBCMT:tncleanup.obj
 0001:00026dcc       __acrt_uninitialize_command_line 0000000140027dcc f   libucrt:argv_data.obj
 0001:00026dcc       _should_initialize_environment 0000000140027dcc f   LIBCMT:env_mode.obj
 0001:00026dd0       _guard_check_icall_nop     0000000140027dd0 f   LIBCMT:guard_support.obj
 0001:00026dd0       _initialize_denormal_control 0000000140027dd0 f   LIBCMT:denormal_control.obj
 0001:00026dd0       _initialize_invalid_parameter_handler 0000000140027dd0 f   LIBCMT:invalid_parameter_handler.obj
 0001:00026dd4       __scrt_initialize_default_local_stdio_options 0000000140027dd4 f   LIBCMT:default_local_stdio_options.obj
 0001:00026df0       __scrt_is_user_matherr_present 0000000140027df0 f   LIBCMT:matherr_detection.obj
 0001:00026dfc       __scrt_get_dyn_tls_init_callback 0000000140027dfc f   LIBCMT:dyn_tls_init.obj
 0001:00026e04       __scrt_get_dyn_tls_dtor_callback 0000000140027e04 f   LIBCMT:dyn_tls_dtor.obj
 0001:00026e0c       __crt_debugger_hook        0000000140027e0c f   LIBCMT:utility_desktop.obj
 0001:00026e14       __scrt_fastfail            0000000140027e14 f   LIBCMT:utility_desktop.obj
 0001:00026f60       __scrt_get_show_window_mode 0000000140027f60 f   LIBCMT:utility_desktop.obj
 0001:00026f9c       __scrt_initialize_mta      0000000140027f9c f   LIBCMT:utility_desktop.obj
 0001:00026fa4       __scrt_is_managed_app      0000000140027fa4 f   LIBCMT:utility_desktop.obj
 0001:00026ff8       __scrt_set_unhandled_exception_filter 0000000140027ff8 f   LIBCMT:utility_desktop.obj
 0001:00027008       __scrt_unhandled_exception_filter 0000000140028008 f   LIBCMT:utility_desktop.obj
 0001:00027064       _RTC_Initialize            0000000140028064 f   LIBCMT:initsect.obj
 0001:000270a0       _RTC_Terminate             00000001400280a0 f   LIBCMT:initsect.obj
 0001:000270dc       __isa_available_init       00000001400280dc f   LIBCMT:cpu_disp.obj
 0001:00027288       __scrt_is_ucrt_dll_in_use  0000000140028288 f   LIBCMT:ucrt_detection.obj
 0001:000272a0       __C_specific_handler       00000001400282a0 f   libvcruntime:riscchandler.obj
 0001:00027498       __vcrt_initialize          0000000140028498 f   libvcruntime:initialization.obj
 0001:000274c0       __vcrt_uninitialize        00000001400284c0 f   libvcruntime:initialization.obj
 0001:000274dc       __std_type_info_compare    00000001400284dc f   libvcruntime:std_type_info.obj
 0001:00027504       __DestructExceptionObject  0000000140028504 f   libvcruntime:ehhelpers.obj
 0001:00027574       ?_CallMemberFunction0@@YAXQEAX0@Z 0000000140028574 f i libvcruntime:ehhelpers.obj
 0001:00027578       _IsExceptionObjectToBeDestroyed 0000000140028578 f   libvcruntime:ehhelpers.obj
 0001:000275a8       __AdjustPointer            00000001400285a8 f   libvcruntime:ehhelpers.obj
 0001:000275cc       __FrameUnwindFilter        00000001400285cc f   libvcruntime:ehhelpers.obj
 0001:00027634       __current_exception        0000000140028634 f   libvcruntime:ehhelpers.obj
 0001:00027648       __current_exception_context 0000000140028648 f   libvcruntime:ehhelpers.obj
 0001:0002765c       __std_terminate            000000014002865c f   libvcruntime:ehhelpers.obj
 0001:00027680       memset_repstos             0000000140028680 f   libvcruntime:memset.obj
 0001:000276a0       memset                     00000001400286a0 f   libvcruntime:memset.obj
 0001:00027a40       _NLG_Notify                0000000140028a40 f   libvcruntime:notify.obj
 0001:00027a60       __NLG_Dispatch2            0000000140028a60 f   libvcruntime:notify.obj
 0001:00027a70       __NLG_Return2              0000000140028a70 f   libvcruntime:notify.obj
 0001:00027a74       __except_validate_context_record 0000000140028a74 f   libvcruntime:jbcxrval.obj
 0001:00027aac       __vcrt_freefls             0000000140028aac f   libvcruntime:per_thread_data.obj
 0001:00027acc       __vcrt_getptd              0000000140028acc f   libvcruntime:per_thread_data.obj
 0001:00027ae8       __vcrt_getptd_noexit       0000000140028ae8 f   libvcruntime:per_thread_data.obj
 0001:00027ba8       __vcrt_initialize_ptd      0000000140028ba8 f   libvcruntime:per_thread_data.obj
 0001:00027bf0       __vcrt_uninitialize_ptd    0000000140028bf0 f   libvcruntime:per_thread_data.obj
 0001:00027c14       __vcrt_initialize_locks    0000000140028c14 f   libvcruntime:locks.obj
 0001:00027c5c       __vcrt_uninitialize_locks  0000000140028c5c f   libvcruntime:locks.obj
 0001:00027de4       __vcrt_FlsAlloc            0000000140028de4 f   libvcruntime:winapi_downlevel.obj
 0001:00027e2c       __vcrt_FlsFree             0000000140028e2c f   libvcruntime:winapi_downlevel.obj
 0001:00027e74       __vcrt_FlsGetValue         0000000140028e74 f   libvcruntime:winapi_downlevel.obj
 0001:00027ebc       __vcrt_FlsSetValue         0000000140028ebc f   libvcruntime:winapi_downlevel.obj
 0001:00027f10       __vcrt_InitializeCriticalSectionEx 0000000140028f10 f   libvcruntime:winapi_downlevel.obj
 0001:00027f74       ??$_CallSETranslator@V__FrameHandler3@@@@YAHPEAUEHExceptionRecord@@PEA_KPEAU_CONTEXT@@PEAU_xDISPATCHER_CONTEXT@@PEBU_s_FuncInfo@@K1H@Z 0000000140028f74 f i libvcruntime:risctrnsctrl.obj
 0001:00027fc8       ?CatchTryBlock@__FrameHandler3@@SAPEBU_s_TryBlockMapEntry@@PEBU_s_FuncInfo@@H@Z 0000000140028fc8 f   libvcruntime:risctrnsctrl.obj
 0001:0002802c       ?ExecutionInCatch@__FrameHandler3@@SA_NPEAU_xDISPATCHER_CONTEXT@@PEBU_s_FuncInfo@@@Z 000000014002902c f   libvcruntime:risctrnsctrl.obj
 0001:00028058       ?FrameUnwindToEmptyState@__FrameHandler3@@SAXPEA_KPEAU_xDISPATCHER_CONTEXT@@PEBU_s_FuncInfo@@@Z 0000000140029058 f   libvcruntime:risctrnsctrl.obj
 0001:000280bc       ?GetEstablisherFrame@__FrameHandler3@@SAPEA_KPEA_KPEAU_xDISPATCHER_CONTEXT@@PEBU_s_FuncInfo@@0@Z 00000001400290bc f   libvcruntime:risctrnsctrl.obj
 0001:00028188       ?GetRangeOfTrysToCheck@__FrameHandler3@@SA?AU?$pair@Viterator@TryBlockMap@__FrameHandler3@@V123@@std@@AEAVTryBlockMap@1@HPEAU_xDISPATCHER_CONTEXT@@PEBU_s_FuncInfo@@H@Z 0000000140029188 f   libvcruntime:risctrnsctrl.obj
 0001:000282c8       ?UnwindNestedFrames@__FrameHandler3@@SAXPEA_KPEAUEHExceptionRecord@@PEAU_CONTEXT@@0PEAXPEBU_s_FuncInfo@@HHPEBU_s_HandlerType@@PEAU_xDISPATCHER_CONTEXT@@E@Z 00000001400292c8 f   libvcruntime:risctrnsctrl.obj
 0001:000283cc       _CreateFrameInfo           00000001400293cc f   libvcruntime:risctrnsctrl.obj
 0001:00028408       _FindAndUnlinkFrame        0000000140029408 f   libvcruntime:risctrnsctrl.obj
 0001:0002845c       _GetImageBase              000000014002945c f   libvcruntime:risctrnsctrl.obj
 0001:00028470       _GetThrowImageBase         0000000140029470 f   libvcruntime:risctrnsctrl.obj
 0001:00028484       _SetImageBase              0000000140029484 f   libvcruntime:risctrnsctrl.obj
 0001:0002849c       _SetThrowImageBase         000000014002949c f   libvcruntime:risctrnsctrl.obj
 0001:000284b4       __CxxFrameHandler3         00000001400294b4 f   libvcruntime:risctrnsctrl.obj
 0001:00028550       memcpy_repmovs             0000000140029550 f   libvcruntime:memcpy.obj
 0001:00028570       memcpy                     0000000140029570 f   libvcruntime:memcpy.obj
 0001:00028570       memmove                    0000000140029570 f   libvcruntime:memcpy.obj
 0001:00028be8       ?GetCurrentState@__FrameHandler3@@SAHPEA_KPEAU_xDISPATCHER_CONTEXT@@PEBU_s_FuncInfo@@@Z 0000000140029be8 f   libvcruntime:ehstate.obj
 0001:00028c10       ?GetUnwindTryBlock@__FrameHandler3@@SAHPEA_KPEAU_xDISPATCHER_CONTEXT@@PEBU_s_FuncInfo@@@Z 0000000140029c10 f   libvcruntime:ehstate.obj
 0001:00028c3c       ?SetState@__FrameHandler3@@SAXPEA_KPEBU_s_FuncInfo@@H@Z 0000000140029c3c f   libvcruntime:ehstate.obj
 0001:00028c48       ?SetUnwindTryBlock@__FrameHandler3@@SAXPEA_KPEAU_xDISPATCHER_CONTEXT@@PEBU_s_FuncInfo@@H@Z 0000000140029c48 f   libvcruntime:ehstate.obj
 0001:00028c84       ?StateFromControlPc@__FrameHandler3@@SAHPEBU_s_FuncInfo@@PEAU_xDISPATCHER_CONTEXT@@@Z 0000000140029c84 f   libvcruntime:ehstate.obj
 0001:00028c8c       ?StateFromIp@__FrameHandler3@@SAHPEBU_s_FuncInfo@@PEAU_xDISPATCHER_CONTEXT@@_K@Z 0000000140029c8c f   libvcruntime:ehstate.obj
 0001:0002977c       ??$TypeMatchHelper@V__FrameHandler3@@@@YAHPEBU_s_HandlerType@@PEBU_s_CatchableType@@PEBU_s_ThrowInfo@@@Z 000000014002a77c f i libvcruntime:frame.obj
 0001:000298bc       ??$__InternalCxxFrameHandler@V__FrameHandler3@@@@YA?AW4_EXCEPTION_DISPOSITION@@PEAUEHExceptionRecord@@PEA_KPEAU_CONTEXT@@PEAU_xDISPATCHER_CONTEXT@@PEBU_s_FuncInfo@@H1E@Z 000000014002a8bc f i libvcruntime:frame.obj
 0001:00029af4       ??$__InternalCxxFrameHandlerWrapper@V__FrameHandler3@@@@YA?AW4_EXCEPTION_DISPOSITION@@PEAUEHExceptionRecord@@PEA_KPEAU_CONTEXT@@PEAU_xDISPATCHER_CONTEXT@@PEBU_s_FuncInfo@@H1E@Z 000000014002aaf4 f i libvcruntime:frame.obj
 0001:00029afc       ??0bad_exception@std@@QEAA@AEBV01@@Z 000000014002aafc f i libvcruntime:frame.obj
 0001:00029b38       ??0bad_exception@std@@QEAA@XZ 000000014002ab38 f i libvcruntime:frame.obj
 0001:00029b58       ??0exception@std@@QEAA@AEBV01@@Z 000000014002ab58 f i libvcruntime:frame.obj
 0001:00029b8c       ??1bad_exception@std@@UEAA@XZ 000000014002ab8c f i libvcruntime:frame.obj
 0001:00029ba0       ??_Ebad_exception@std@@UEAAPEAXI@Z 000000014002aba0 f i libvcruntime:frame.obj
 0001:00029ba0       ??_Eexception@std@@UEAAPEAXI@Z 000000014002aba0 f i libvcruntime:frame.obj
 0001:00029ba0       ??_Gbad_exception@std@@UEAAPEAXI@Z 000000014002aba0 f i libvcruntime:frame.obj
 0001:00029ba0       ??_Gexception@std@@UEAAPEAXI@Z 000000014002aba0 f i libvcruntime:frame.obj
 0001:00029be4       ?CxxCallCatchBlock@__FrameHandler3@@SAPEAXPEAU_EXCEPTION_RECORD@@@Z 000000014002abe4 f   libvcruntime:frame.obj
 0001:00029e58       ?FrameUnwindToState@__FrameHandler3@@SAXPEA_KPEAU_xDISPATCHER_CONTEXT@@PEBU_s_FuncInfo@@H@Z 000000014002ae58 f   libvcruntime:frame.obj
 0001:00029fe4       ?GetHandlerSearchState@__FrameHandler3@@SAHPEA_KPEAU_xDISPATCHER_CONTEXT@@PEBU_s_FuncInfo@@@Z 000000014002afe4 f i libvcruntime:frame.obj
 0001:0002a1f4       ?_CallMemberFunction1@@YAXQEAX00@Z 000000014002b1f4 f i libvcruntime:frame.obj
 0001:0002a200       ?_CallMemberFunction2@@YAXQEAX00H@Z 000000014002b200 f i libvcruntime:frame.obj
 0001:0002a210       ?what@exception@std@@UEBAPEBDXZ 000000014002b210 f i libvcruntime:frame.obj
 0001:0002a240       _CallSettingFrame          000000014002b240 f   libvcruntime:handlers.obj
 0001:0002a290       _CallSettingFrame_LookupContinuationIndex 000000014002b290 f   libvcruntime:handlers.obj
 0001:0002a2c0       _CallSettingFrame_NotifyContinuationAddr 000000014002b2c0 f   libvcruntime:handlers.obj
 0001:0002a2f0       _CallSettingFrameEncoded   000000014002b2f0 f   libvcruntime:handlers.obj
 0001:0002a338       __std_exception_copy       000000014002b338 f   libvcruntime:std_exception.obj
 0001:0002a3c8       __std_exception_destroy    000000014002b3c8 f   libvcruntime:std_exception.obj
 0001:0002a3f0       _CxxThrowException         000000014002b3f0 f   libvcruntime:throw.obj
 0001:0002a490       _local_unwind              000000014002b490 f   libvcruntime:jmpuwind.obj
 0001:0002a4d0       strncmp                    000000014002b4d0 f   libucrt:strncmp.obj
 0001:0002a550       free                       000000014002b550 f   libucrt:free.obj
 0001:0002a564       malloc                     000000014002b564 f   libucrt:malloc.obj
 0001:0002a56c       realloc                    000000014002b56c f   libucrt:realloc.obj
 0001:0002a574       ??$is_overflow_condition@_K@__crt_strtox@@YA_NI_K@Z 000000014002b574 f i libucrt:strtox.obj
 0001:0002a5a4       ??$parse_integer@KV?$c_string_character_source@D@__crt_strtox@@$00@__crt_strtox@@YAKAEAV__crt_cached_ptd_host@@V?$c_string_character_source@D@0@H_N@Z 000000014002b5a4 f i libucrt:strtox.obj
 0001:0002a884       ??$parse_integer@_KV?$c_string_character_source@D@__crt_strtox@@$00@__crt_strtox@@YA_KAEAV__crt_cached_ptd_host@@V?$c_string_character_source@D@0@H_N@Z 000000014002b884 f i libucrt:strtox.obj
 0001:0002ab60       ?get_raw_ptd@__crt_cached_ptd_host@@QEAAPEAU__acrt_ptd@@XZ 000000014002bb60 f i libucrt:strtox.obj
 0001:0002abd0       ?update_locale_slow@__crt_cached_ptd_host@@AEAAXXZ 000000014002bbd0 f i libucrt:strtox.obj
 0001:0002ac48       _ischartype_l              000000014002bc48 f i libucrt:strtox.obj
 0001:0002acc0       strtol                     000000014002bcc0 f   libucrt:strtox.obj
 0001:0002ad74       strtoull                   000000014002bd74 f   libucrt:strtox.obj
 0001:0002ae28       ldexp                      000000014002be28 f   libucrt:ldexp.obj
 0001:0002af98       ??0__crt_stdio_stream@@QEAA@QEAU_iobuf@@@Z 000000014002bf98 f i libucrt:_file.obj
 0001:0002afa0       __acrt_initialize_stdio    000000014002bfa0 f   libucrt:_file.obj
 0001:0002b0c0       __acrt_iob_func            000000014002c0c0 f   libucrt:_file.obj
 0001:0002b0d4       __acrt_uninitialize_stdio  000000014002c0d4 f   libucrt:_file.obj
 0001:0002b130       _lock_file                 000000014002c130 f   libucrt:_file.obj
 0001:0002b13c       _unlock_file               000000014002c13c f   libucrt:_file.obj
 0001:0002b204       fopen_s                    000000014002c204 f   libucrt:fopen.obj
 0001:0002b37c       fclose                     000000014002c37c f   libucrt:fclose.obj
 0001:0002b414       feof                       000000014002c414 f   libucrt:feoferr.obj
 0001:0002b440       ferror                     000000014002c440 f   libucrt:feoferr.obj
 0001:0002b688       __acrt_stdio_flush_nolock  000000014002c688 f   libucrt:fflush.obj
 0001:0002b714       _fflush_nolock             000000014002c714 f   libucrt:fflush.obj
 0001:0002b7e8       _flushall                  000000014002c7e8 f   libucrt:fflush.obj
 0001:0002b7f0       fflush                     000000014002c7f0 f   libucrt:fflush.obj
 0001:0002b858       _fgetc_nolock              000000014002c858 f   libucrt:fgetc.obj
 0001:0002b89c       fgetc                      000000014002c89c f   libucrt:fgetc.obj
 0001:0002b9ac       ?has_any_buffer@__crt_stdio_stream@@QEBA_NXZ 000000014002c9ac f i libucrt:fread.obj
 0001:0002b9bc       _fread_nolock_s            000000014002c9bc f   libucrt:fread.obj
 0001:0002bc1c       fread                      000000014002cc1c f   libucrt:fread.obj
 0001:0002bc3c       fread_s                    000000014002cc3c f   libucrt:fread.obj
 0001:0002bf34       fseek                      000000014002cf34 f   libucrt:fseek.obj
 0001:0002c4e0       _ftelli64_nolock_internal  000000014002d4e0 f   libucrt:ftell.obj
 0001:0002c4e8       ftell                      000000014002d4e8 f   libucrt:ftell.obj
 0001:0002c580       _ungetc_nolock             000000014002d580 f   libucrt:ungetc.obj
 0001:0002c6a0       ungetc                     000000014002d6a0 f   libucrt:ungetc.obj
 0001:0002c928       ??$ensure_buffer_is_big_enough@D@formatting_buffer@__crt_stdio_output@@QEAA_N_KAEAV__crt_cached_ptd_host@@@Z 000000014002d928 f i libucrt:output.obj
 0001:0002c9d0       ??$ensure_buffer_is_big_enough@_W@formatting_buffer@__crt_stdio_output@@QEAA_N_KAEAV__crt_cached_ptd_host@@@Z 000000014002d9d0 f i libucrt:output.obj
 0001:0002ca7c       ??$is_wide_character_specifier@_W@__crt_stdio_output@@YA_N_K_WW4length_modifier@0@@Z 000000014002da7c f i libucrt:output.obj
 0001:0002cabc       ??$parse_integer@KV?$c_string_character_source@D@__crt_strtox@@$0A@@__crt_strtox@@YAKAEAV__crt_cached_ptd_host@@V?$c_string_character_source@D@0@H_N@Z 000000014002dabc f i libucrt:output.obj
 0001:0002cd6c       ??$parse_integer@KV?$c_string_character_source@_W@__crt_strtox@@$0A@@__crt_strtox@@YAKAEAV__crt_cached_ptd_host@@V?$c_string_character_source@_W@0@H_N@Z 000000014002dd6c f i libucrt:output.obj
 0001:0002d4c4       ??$type_case_integer@$07@?$output_processor@DV?$stream_output_adapter@D@__crt_stdio_output@@V?$standard_base@DV?$stream_output_adapter@D@__crt_stdio_output@@@2@@__crt_stdio_output@@AEAA_N_N@Z 000000014002e4c4 f i libucrt:output.obj
 0001:0002d4c4       ??$type_case_integer@$07@?$output_processor@DV?$string_output_adapter@D@__crt_stdio_output@@V?$format_validation_base@DV?$string_output_adapter@D@__crt_stdio_output@@@2@@__crt_stdio_output@@AEAA_N_N@Z 000000014002e4c4 f i libucrt:output.obj
 0001:0002d4c4       ??$type_case_integer@$07@?$output_processor@DV?$string_output_adapter@D@__crt_stdio_output@@V?$standard_base@DV?$string_output_adapter@D@__crt_stdio_output@@@2@@__crt_stdio_output@@AEAA_N_N@Z 000000014002e4c4 f i libucrt:output.obj
 0001:0002d6ac       ??$type_case_integer@$07@?$output_processor@_WV?$stream_output_adapter@_W@__crt_stdio_output@@V?$standard_base@_WV?$stream_output_adapter@_W@__crt_stdio_output@@@2@@__crt_stdio_output@@AEAA_N_N@Z 000000014002e6ac f i libucrt:output.obj
 0001:0002d6ac       ??$type_case_integer@$07@?$output_processor@_WV?$string_output_adapter@_W@__crt_stdio_output@@V?$standard_base@_WV?$string_output_adapter@_W@__crt_stdio_output@@@2@@__crt_stdio_output@@AEAA_N_N@Z 000000014002e6ac f i libucrt:output.obj
 0001:0002d898       ??$type_case_integer@$09@?$output_processor@DV?$stream_output_adapter@D@__crt_stdio_output@@V?$standard_base@DV?$stream_output_adapter@D@__crt_stdio_output@@@2@@__crt_stdio_output@@AEAA_N_N@Z 000000014002e898 f i libucrt:output.obj
 0001:0002d898       ??$type_case_integer@$09@?$output_processor@DV?$string_output_adapter@D@__crt_stdio_output@@V?$format_validation_base@DV?$string_output_adapter@D@__crt_stdio_output@@@2@@__crt_stdio_output@@AEAA_N_N@Z 000000014002e898 f i libucrt:output.obj
 0001:0002d898       ??$type_case_integer@$09@?$output_processor@DV?$string_output_adapter@D@__crt_stdio_output@@V?$standard_base@DV?$string_output_adapter@D@__crt_stdio_output@@@2@@__crt_stdio_output@@AEAA_N_N@Z 000000014002e898 f i libucrt:output.obj
 0001:0002da80       ??$type_case_integer@$09@?$output_processor@_WV?$stream_output_adapter@_W@__crt_stdio_output@@V?$standard_base@_WV?$stream_output_adapter@_W@__crt_stdio_output@@@2@@__crt_stdio_output@@AEAA_N_N@Z 000000014002ea80 f i libucrt:output.obj
 0001:0002da80       ??$type_case_integer@$09@?$output_processor@_WV?$string_output_adapter@_W@__crt_stdio_output@@V?$standard_base@_WV?$string_output_adapter@_W@__crt_stdio_output@@@2@@__crt_stdio_output@@AEAA_N_N@Z 000000014002ea80 f i libucrt:output.obj
 0001:0002dc6c       ??$type_case_integer@$0BA@@?$output_processor@DV?$stream_output_adapter@D@__crt_stdio_output@@V?$standard_base@DV?$stream_output_adapter@D@__crt_stdio_output@@@2@@__crt_stdio_output@@AEAA_N_N@Z 000000014002ec6c f i libucrt:output.obj
 0001:0002dc6c       ??$type_case_integer@$0BA@@?$output_processor@DV?$string_output_adapter@D@__crt_stdio_output@@V?$format_validation_base@DV?$string_output_adapter@D@__crt_stdio_output@@@2@@__crt_stdio_output@@AEAA_N_N@Z 000000014002ec6c f i libucrt:output.obj
 0001:0002dc6c       ??$type_case_integer@$0BA@@?$output_processor@DV?$string_output_adapter@D@__crt_stdio_output@@V?$standard_base@DV?$string_output_adapter@D@__crt_stdio_output@@@2@@__crt_stdio_output@@AEAA_N_N@Z 000000014002ec6c f i libucrt:output.obj
 0001:0002de54       ??$type_case_integer@$0BA@@?$output_processor@_WV?$stream_output_adapter@_W@__crt_stdio_output@@V?$standard_base@_WV?$stream_output_adapter@_W@__crt_stdio_output@@@2@@__crt_stdio_output@@AEAA_N_N@Z 000000014002ee54 f i libucrt:output.obj
 0001:0002de54       ??$type_case_integer@$0BA@@?$output_processor@_WV?$string_output_adapter@_W@__crt_stdio_output@@V?$standard_base@_WV?$string_output_adapter@_W@__crt_stdio_output@@@2@@__crt_stdio_output@@AEAA_N_N@Z 000000014002ee54 f i libucrt:output.obj
 0001:0002e040       ??$type_case_integer_parse_into_buffer@I$07@?$output_processor@DV?$stream_output_adapter@D@__crt_stdio_output@@V?$standard_base@DV?$stream_output_adapter@D@__crt_stdio_output@@@2@@__crt_stdio_output@@AEAAXI_N@Z 000000014002f040 f i libucrt:output.obj
 0001:0002e040       ??$type_case_integer_parse_into_buffer@I$07@?$output_processor@DV?$string_output_adapter@D@__crt_stdio_output@@V?$format_validation_base@DV?$string_output_adapter@D@__crt_stdio_output@@@2@@__crt_stdio_output@@AEAAXI_N@Z 000000014002f040 f i libucrt:output.obj
 0001:0002e040       ??$type_case_integer_parse_into_buffer@I$07@?$output_processor@DV?$string_output_adapter@D@__crt_stdio_output@@V?$standard_base@DV?$string_output_adapter@D@__crt_stdio_output@@@2@@__crt_stdio_output@@AEAAXI_N@Z 000000014002f040 f i libucrt:output.obj
 0001:0002e0bc       ??$type_case_integer_parse_into_buffer@I$07@?$output_processor@_WV?$stream_output_adapter@_W@__crt_stdio_output@@V?$standard_base@_WV?$stream_output_adapter@_W@__crt_stdio_output@@@2@@__crt_stdio_output@@AEAAXI_N@Z 000000014002f0bc f i libucrt:output.obj
 0001:0002e0bc       ??$type_case_integer_parse_into_buffer@I$07@?$output_processor@_WV?$string_output_adapter@_W@__crt_stdio_output@@V?$standard_base@_WV?$string_output_adapter@_W@__crt_stdio_output@@@2@@__crt_stdio_output@@AEAAXI_N@Z 000000014002f0bc f i libucrt:output.obj
 0001:0002e144       ??$type_case_integer_parse_into_buffer@I$09@?$output_processor@DV?$stream_output_adapter@D@__crt_stdio_output@@V?$standard_base@DV?$stream_output_adapter@D@__crt_stdio_output@@@2@@__crt_stdio_output@@AEAAXI_N@Z 000000014002f144 f i libucrt:output.obj
 0001:0002e144       ??$type_case_integer_parse_into_buffer@I$09@?$output_processor@DV?$string_output_adapter@D@__crt_stdio_output@@V?$format_validation_base@DV?$string_output_adapter@D@__crt_stdio_output@@@2@@__crt_stdio_output@@AEAAXI_N@Z 000000014002f144 f i libucrt:output.obj
 0001:0002e144       ??$type_case_integer_parse_into_buffer@I$09@?$output_processor@DV?$string_output_adapter@D@__crt_stdio_output@@V?$standard_base@DV?$string_output_adapter@D@__crt_stdio_output@@@2@@__crt_stdio_output@@AEAAXI_N@Z 000000014002f144 f i libucrt:output.obj
 0001:0002e1ec       ??$type_case_integer_parse_into_buffer@I$09@?$output_processor@_WV?$stream_output_adapter@_W@__crt_stdio_output@@V?$standard_base@_WV?$stream_output_adapter@_W@__crt_stdio_output@@@2@@__crt_stdio_output@@AEAAXI_N@Z 000000014002f1ec f i libucrt:output.obj
 0001:0002e1ec       ??$type_case_integer_parse_into_buffer@I$09@?$output_processor@_WV?$string_output_adapter@_W@__crt_stdio_output@@V?$standard_base@_WV?$string_output_adapter@_W@__crt_stdio_output@@@2@@__crt_stdio_output@@AEAAXI_N@Z 000000014002f1ec f i libucrt:output.obj
 0001:0002e2a4       ??$type_case_integer_parse_into_buffer@I$0BA@@?$output_processor@DV?$stream_output_adapter@D@__crt_stdio_output@@V?$standard_base@DV?$stream_output_adapter@D@__crt_stdio_output@@@2@@__crt_stdio_output@@AEAAXI_N@Z 000000014002f2a4 f i libucrt:output.obj
 0001:0002e2a4       ??$type_case_integer_parse_into_buffer@I$0BA@@?$output_processor@DV?$string_output_adapter@D@__crt_stdio_output@@V?$format_validation_base@DV?$string_output_adapter@D@__crt_stdio_output@@@2@@__crt_stdio_output@@AEAAXI_N@Z 000000014002f2a4 f i libucrt:output.obj
 0001:0002e2a4       ??$type_case_integer_parse_into_buffer@I$0BA@@?$output_processor@DV?$string_output_adapter@D@__crt_stdio_output@@V?$standard_base@DV?$string_output_adapter@D@__crt_stdio_output@@@2@@__crt_stdio_output@@AEAAXI_N@Z 000000014002f2a4 f i libucrt:output.obj
 0001:0002e330       ??$type_case_integer_parse_into_buffer@I$0BA@@?$output_processor@_WV?$stream_output_adapter@_W@__crt_stdio_output@@V?$standard_base@_WV?$stream_output_adapter@_W@__crt_stdio_output@@@2@@__crt_stdio_output@@AEAAXI_N@Z 000000014002f330 f i libucrt:output.obj
 0001:0002e330       ??$type_case_integer_parse_into_buffer@I$0BA@@?$output_processor@_WV?$string_output_adapter@_W@__crt_stdio_output@@V?$standard_base@_WV?$string_output_adapter@_W@__crt_stdio_output@@@2@@__crt_stdio_output@@AEAAXI_N@Z 000000014002f330 f i libucrt:output.obj
 0001:0002e3d4       ??$type_case_integer_parse_into_buffer@_K$07@?$output_processor@DV?$stream_output_adapter@D@__crt_stdio_output@@V?$standard_base@DV?$stream_output_adapter@D@__crt_stdio_output@@@2@@__crt_stdio_output@@AEAAX_K_N@Z 000000014002f3d4 f i libucrt:output.obj
 0001:0002e3d4       ??$type_case_integer_parse_into_buffer@_K$07@?$output_processor@DV?$string_output_adapter@D@__crt_stdio_output@@V?$format_validation_base@DV?$string_output_adapter@D@__crt_stdio_output@@@2@@__crt_stdio_output@@AEAAX_K_N@Z 000000014002f3d4 f i libucrt:output.obj
 0001:0002e3d4       ??$type_case_integer_parse_into_buffer@_K$07@?$output_processor@DV?$string_output_adapter@D@__crt_stdio_output@@V?$standard_base@DV?$string_output_adapter@D@__crt_stdio_output@@@2@@__crt_stdio_output@@AEAAX_K_N@Z 000000014002f3d4 f i libucrt:output.obj
 0001:0002e450       ??$type_case_integer_parse_into_buffer@_K$07@?$output_processor@_WV?$stream_output_adapter@_W@__crt_stdio_output@@V?$standard_base@_WV?$stream_output_adapter@_W@__crt_stdio_output@@@2@@__crt_stdio_output@@AEAAX_K_N@Z 000000014002f450 f i libucrt:output.obj
 0001:0002e450       ??$type_case_integer_parse_into_buffer@_K$07@?$output_processor@_WV?$string_output_adapter@_W@__crt_stdio_output@@V?$standard_base@_WV?$string_output_adapter@_W@__crt_stdio_output@@@2@@__crt_stdio_output@@AEAAX_K_N@Z 000000014002f450 f i libucrt:output.obj
 0001:0002e4d8       ??$type_case_integer_parse_into_buffer@_K$09@?$output_processor@DV?$stream_output_adapter@D@__crt_stdio_output@@V?$standard_base@DV?$stream_output_adapter@D@__crt_stdio_output@@@2@@__crt_stdio_output@@AEAAX_K_N@Z 000000014002f4d8 f i libucrt:output.obj
 0001:0002e4d8       ??$type_case_integer_parse_into_buffer@_K$09@?$output_processor@DV?$string_output_adapter@D@__crt_stdio_output@@V?$format_validation_base@DV?$string_output_adapter@D@__crt_stdio_output@@@2@@__crt_stdio_output@@AEAAX_K_N@Z 000000014002f4d8 f i libucrt:output.obj
 0001:0002e4d8       ??$type_case_integer_parse_into_buffer@_K$09@?$output_processor@DV?$string_output_adapter@D@__crt_stdio_output@@V?$standard_base@DV?$string_output_adapter@D@__crt_stdio_output@@@2@@__crt_stdio_output@@AEAAX_K_N@Z 000000014002f4d8 f i libucrt:output.obj
 0001:0002e584       ??$type_case_integer_parse_into_buffer@_K$09@?$output_processor@_WV?$stream_output_adapter@_W@__crt_stdio_output@@V?$standard_base@_WV?$stream_output_adapter@_W@__crt_stdio_output@@@2@@__crt_stdio_output@@AEAAX_K_N@Z 000000014002f584 f i libucrt:output.obj
 0001:0002e584       ??$type_case_integer_parse_into_buffer@_K$09@?$output_processor@_WV?$string_output_adapter@_W@__crt_stdio_output@@V?$standard_base@_WV?$string_output_adapter@_W@__crt_stdio_output@@@2@@__crt_stdio_output@@AEAAX_K_N@Z 000000014002f584 f i libucrt:output.obj
 0001:0002e644       ??$type_case_integer_parse_into_buffer@_K$0BA@@?$output_processor@DV?$stream_output_adapter@D@__crt_stdio_output@@V?$standard_base@DV?$stream_output_adapter@D@__crt_stdio_output@@@2@@__crt_stdio_output@@AEAAX_K_N@Z 000000014002f644 f i libucrt:output.obj
 0001:0002e644       ??$type_case_integer_parse_into_buffer@_K$0BA@@?$output_processor@DV?$string_output_adapter@D@__crt_stdio_output@@V?$format_validation_base@DV?$string_output_adapter@D@__crt_stdio_output@@@2@@__crt_stdio_output@@AEAAX_K_N@Z 000000014002f644 f i libucrt:output.obj
 0001:0002e644       ??$type_case_integer_parse_into_buffer@_K$0BA@@?$output_processor@DV?$string_output_adapter@D@__crt_stdio_output@@V?$standard_base@DV?$string_output_adapter@D@__crt_stdio_output@@@2@@__crt_stdio_output@@AEAAX_K_N@Z 000000014002f644 f i libucrt:output.obj
 0001:0002e6d0       ??$type_case_integer_parse_into_buffer@_K$0BA@@?$output_processor@_WV?$stream_output_adapter@_W@__crt_stdio_output@@V?$standard_base@_WV?$stream_output_adapter@_W@__crt_stdio_output@@@2@@__crt_stdio_output@@AEAAX_K_N@Z 000000014002f6d0 f i libucrt:output.obj
 0001:0002e6d0       ??$type_case_integer_parse_into_buffer@_K$0BA@@?$output_processor@_WV?$string_output_adapter@_W@__crt_stdio_output@@V?$standard_base@_WV?$string_output_adapter@_W@__crt_stdio_output@@@2@@__crt_stdio_output@@AEAAX_K_N@Z 000000014002f6d0 f i libucrt:output.obj
 0001:0002e9ac       ?crop_zeroes@__crt_stdio_output@@YAXPEADQEAU__crt_locale_pointers@@@Z 000000014002f9ac f i libucrt:output.obj
 0001:0002ea18       ?parse_int_from_format_string@?$output_processor@DV?$stream_output_adapter@D@__crt_stdio_output@@V?$standard_base@DV?$stream_output_adapter@D@__crt_stdio_output@@@2@@__crt_stdio_output@@AEAA_NQEAH@Z 000000014002fa18 f i libucrt:output.obj
 0001:0002ea18       ?parse_int_from_format_string@?$output_processor@DV?$string_output_adapter@D@__crt_stdio_output@@V?$format_validation_base@DV?$string_output_adapter@D@__crt_stdio_output@@@2@@__crt_stdio_output@@AEAA_NQEAH@Z 000000014002fa18 f i libucrt:output.obj
 0001:0002ea18       ?parse_int_from_format_string@?$output_processor@DV?$string_output_adapter@D@__crt_stdio_output@@V?$standard_base@DV?$string_output_adapter@D@__crt_stdio_output@@@2@@__crt_stdio_output@@AEAA_NQEAH@Z 000000014002fa18 f i libucrt:output.obj
 0001:0002eaa8       ?parse_int_from_format_string@?$output_processor@_WV?$stream_output_adapter@_W@__crt_stdio_output@@V?$standard_base@_WV?$stream_output_adapter@_W@__crt_stdio_output@@@2@@__crt_stdio_output@@AEAA_NQEAH@Z 000000014002faa8 f i libucrt:output.obj
 0001:0002eaa8       ?parse_int_from_format_string@?$output_processor@_WV?$string_output_adapter@_W@__crt_stdio_output@@V?$standard_base@_WV?$string_output_adapter@_W@__crt_stdio_output@@@2@@__crt_stdio_output@@AEAA_NQEAH@Z 000000014002faa8 f i libucrt:output.obj
 0001:0002eb38       ?process@?$output_processor@DV?$stream_output_adapter@D@__crt_stdio_output@@V?$standard_base@DV?$stream_output_adapter@D@__crt_stdio_output@@@2@@__crt_stdio_output@@QEAAHXZ 000000014002fb38 f i libucrt:output.obj
 0001:0002eec4       ?process@?$output_processor@DV?$string_output_adapter@D@__crt_stdio_output@@V?$format_validation_base@DV?$string_output_adapter@D@__crt_stdio_output@@@2@@__crt_stdio_output@@QEAAHXZ 000000014002fec4 f i libucrt:output.obj
 0001:0002f254       ?process@?$output_processor@DV?$string_output_adapter@D@__crt_stdio_output@@V?$standard_base@DV?$string_output_adapter@D@__crt_stdio_output@@@2@@__crt_stdio_output@@QEAAHXZ 0000000140030254 f i libucrt:output.obj
 0001:0002f5d8       ?process@?$output_processor@_WV?$stream_output_adapter@_W@__crt_stdio_output@@V?$standard_base@_WV?$stream_output_adapter@_W@__crt_stdio_output@@@2@@__crt_stdio_output@@QEAAHXZ 00000001400305d8 f i libucrt:output.obj
 0001:0002f894       ?process@?$output_processor@_WV?$string_output_adapter@_W@__crt_stdio_output@@V?$standard_base@_WV?$string_output_adapter@_W@__crt_stdio_output@@@2@@__crt_stdio_output@@QEAAHXZ 0000000140030894 f i libucrt:output.obj
 0001:0002fb58       ?state_case_size@?$output_processor@DV?$stream_output_adapter@D@__crt_stdio_output@@V?$standard_base@DV?$stream_output_adapter@D@__crt_stdio_output@@@2@@__crt_stdio_output@@AEAA_NXZ 0000000140030b58 f i libucrt:output.obj
 0001:0002fcdc       ?state_case_size@?$output_processor@DV?$string_output_adapter@D@__crt_stdio_output@@V?$format_validation_base@DV?$string_output_adapter@D@__crt_stdio_output@@@2@@__crt_stdio_output@@AEAA_NXZ 0000000140030cdc f i libucrt:output.obj
 0001:0002fcdc       ?state_case_size@?$output_processor@DV?$string_output_adapter@D@__crt_stdio_output@@V?$standard_base@DV?$string_output_adapter@D@__crt_stdio_output@@@2@@__crt_stdio_output@@AEAA_NXZ 0000000140030cdc f i libucrt:output.obj
 0001:0002fe60       ?state_case_size@?$output_processor@_WV?$stream_output_adapter@_W@__crt_stdio_output@@V?$standard_base@_WV?$stream_output_adapter@_W@__crt_stdio_output@@@2@@__crt_stdio_output@@AEAA_NXZ 0000000140030e60 f i libucrt:output.obj
 0001:0003000c       ?state_case_size@?$output_processor@_WV?$string_output_adapter@_W@__crt_stdio_output@@V?$standard_base@_WV?$string_output_adapter@_W@__crt_stdio_output@@@2@@__crt_stdio_output@@AEAA_NXZ 000000014003100c f i libucrt:output.obj
 0001:000301b8       ?state_case_type@?$output_processor@DV?$stream_output_adapter@D@__crt_stdio_output@@V?$standard_base@DV?$stream_output_adapter@D@__crt_stdio_output@@@2@@__crt_stdio_output@@AEAA_NXZ 00000001400311b8 f i libucrt:output.obj
 0001:000305ec       ?state_case_type@?$output_processor@DV?$string_output_adapter@D@__crt_stdio_output@@V?$format_validation_base@DV?$string_output_adapter@D@__crt_stdio_output@@@2@@__crt_stdio_output@@AEAA_NXZ 00000001400315ec f i libucrt:output.obj
 0001:000305ec       ?state_case_type@?$output_processor@DV?$string_output_adapter@D@__crt_stdio_output@@V?$standard_base@DV?$string_output_adapter@D@__crt_stdio_output@@@2@@__crt_stdio_output@@AEAA_NXZ 00000001400315ec f i libucrt:output.obj
 0001:000309b8       ?state_case_type@?$output_processor@_WV?$stream_output_adapter@_W@__crt_stdio_output@@V?$standard_base@_WV?$stream_output_adapter@_W@__crt_stdio_output@@@2@@__crt_stdio_output@@AEAA_NXZ 00000001400319b8 f i libucrt:output.obj
 0001:00030e88       ?state_case_type@?$output_processor@_WV?$string_output_adapter@_W@__crt_stdio_output@@V?$standard_base@_WV?$string_output_adapter@_W@__crt_stdio_output@@@2@@__crt_stdio_output@@AEAA_NXZ 0000000140031e88 f i libucrt:output.obj
 0001:000312e4       ?type_case_Z@?$output_processor@DV?$stream_output_adapter@D@__crt_stdio_output@@V?$standard_base@DV?$stream_output_adapter@D@__crt_stdio_output@@@2@@__crt_stdio_output@@AEAA_NXZ 00000001400322e4 f i libucrt:output.obj
 0001:000312e4       ?type_case_Z@?$output_processor@DV?$string_output_adapter@D@__crt_stdio_output@@V?$format_validation_base@DV?$string_output_adapter@D@__crt_stdio_output@@@2@@__crt_stdio_output@@AEAA_NXZ 00000001400322e4 f i libucrt:output.obj
 0001:000312e4       ?type_case_Z@?$output_processor@DV?$string_output_adapter@D@__crt_stdio_output@@V?$standard_base@DV?$string_output_adapter@D@__crt_stdio_output@@@2@@__crt_stdio_output@@AEAA_NXZ 00000001400322e4 f i libucrt:output.obj
 0001:0003135c       ?type_case_Z@?$output_processor@_WV?$stream_output_adapter@_W@__crt_stdio_output@@V?$standard_base@_WV?$stream_output_adapter@_W@__crt_stdio_output@@@2@@__crt_stdio_output@@AEAA_NXZ 000000014003235c f i libucrt:output.obj
 0001:0003135c       ?type_case_Z@?$output_processor@_WV?$string_output_adapter@_W@__crt_stdio_output@@V?$standard_base@_WV?$string_output_adapter@_W@__crt_stdio_output@@@2@@__crt_stdio_output@@AEAA_NXZ 000000014003235c f i libucrt:output.obj
 0001:000313d8       ?type_case_a@?$output_processor@DV?$stream_output_adapter@D@__crt_stdio_output@@V?$standard_base@DV?$stream_output_adapter@D@__crt_stdio_output@@@2@@__crt_stdio_output@@AEAA_NXZ 00000001400323d8 f i libucrt:output.obj
 0001:000313d8       ?type_case_a@?$output_processor@DV?$string_output_adapter@D@__crt_stdio_output@@V?$format_validation_base@DV?$string_output_adapter@D@__crt_stdio_output@@@2@@__crt_stdio_output@@AEAA_NXZ 00000001400323d8 f i libucrt:output.obj
 0001:000313d8       ?type_case_a@?$output_processor@DV?$string_output_adapter@D@__crt_stdio_output@@V?$standard_base@DV?$string_output_adapter@D@__crt_stdio_output@@@2@@__crt_stdio_output@@AEAA_NXZ 00000001400323d8 f i libucrt:output.obj
 0001:00031624       ?type_case_a@?$output_processor@_WV?$stream_output_adapter@_W@__crt_stdio_output@@V?$standard_base@_WV?$stream_output_adapter@_W@__crt_stdio_output@@@2@@__crt_stdio_output@@AEAA_NXZ 0000000140032624 f i libucrt:output.obj
 0001:00031624       ?type_case_a@?$output_processor@_WV?$string_output_adapter@_W@__crt_stdio_output@@V?$standard_base@_WV?$string_output_adapter@_W@__crt_stdio_output@@@2@@__crt_stdio_output@@AEAA_NXZ 0000000140032624 f i libucrt:output.obj
 0001:00031884       ?type_case_c_tchar@?$output_processor@DV?$stream_output_adapter@D@__crt_stdio_output@@V?$standard_base@DV?$stream_output_adapter@D@__crt_stdio_output@@@2@@__crt_stdio_output@@AEAA_ND@Z 0000000140032884 f i libucrt:output.obj
 0001:00031884       ?type_case_c_tchar@?$output_processor@DV?$string_output_adapter@D@__crt_stdio_output@@V?$format_validation_base@DV?$string_output_adapter@D@__crt_stdio_output@@@2@@__crt_stdio_output@@AEAA_ND@Z 0000000140032884 f i libucrt:output.obj
 0001:00031884       ?type_case_c_tchar@?$output_processor@DV?$string_output_adapter@D@__crt_stdio_output@@V?$standard_base@DV?$string_output_adapter@D@__crt_stdio_output@@@2@@__crt_stdio_output@@AEAA_ND@Z 0000000140032884 f i libucrt:output.obj
 0001:00031948       ?type_case_c_tchar@?$output_processor@_WV?$stream_output_adapter@_W@__crt_stdio_output@@V?$standard_base@_WV?$stream_output_adapter@_W@__crt_stdio_output@@@2@@__crt_stdio_output@@AEAA_N_W@Z 0000000140032948 f i libucrt:output.obj
 0001:00031948       ?type_case_c_tchar@?$output_processor@_WV?$string_output_adapter@_W@__crt_stdio_output@@V?$standard_base@_WV?$string_output_adapter@_W@__crt_stdio_output@@@2@@__crt_stdio_output@@AEAA_N_W@Z 0000000140032948 f i libucrt:output.obj
 0001:00031a0c       ?type_case_n@?$output_processor@DV?$stream_output_adapter@D@__crt_stdio_output@@V?$standard_base@DV?$stream_output_adapter@D@__crt_stdio_output@@@2@@__crt_stdio_output@@AEAA_NXZ 0000000140032a0c f i libucrt:output.obj
 0001:00031a0c       ?type_case_n@?$output_processor@DV?$string_output_adapter@D@__crt_stdio_output@@V?$format_validation_base@DV?$string_output_adapter@D@__crt_stdio_output@@@2@@__crt_stdio_output@@AEAA_NXZ 0000000140032a0c f i libucrt:output.obj
 0001:00031a0c       ?type_case_n@?$output_processor@DV?$string_output_adapter@D@__crt_stdio_output@@V?$standard_base@DV?$string_output_adapter@D@__crt_stdio_output@@@2@@__crt_stdio_output@@AEAA_NXZ 0000000140032a0c f i libucrt:output.obj
 0001:00031a0c       ?type_case_n@?$output_processor@_WV?$stream_output_adapter@_W@__crt_stdio_output@@V?$standard_base@_WV?$stream_output_adapter@_W@__crt_stdio_output@@@2@@__crt_stdio_output@@AEAA_NXZ 0000000140032a0c f i libucrt:output.obj
 0001:00031a0c       ?type_case_n@?$output_processor@_WV?$string_output_adapter@_W@__crt_stdio_output@@V?$standard_base@_WV?$string_output_adapter@_W@__crt_stdio_output@@@2@@__crt_stdio_output@@AEAA_NXZ 0000000140032a0c f i libucrt:output.obj
 0001:00031ac0       ?type_case_s@?$output_processor@DV?$stream_output_adapter@D@__crt_stdio_output@@V?$standard_base@DV?$stream_output_adapter@D@__crt_stdio_output@@@2@@__crt_stdio_output@@AEAA_NXZ 0000000140032ac0 f i libucrt:output.obj
 0001:00031ac0       ?type_case_s@?$output_processor@DV?$string_output_adapter@D@__crt_stdio_output@@V?$format_validation_base@DV?$string_output_adapter@D@__crt_stdio_output@@@2@@__crt_stdio_output@@AEAA_NXZ 0000000140032ac0 f i libucrt:output.obj
 0001:00031ac0       ?type_case_s@?$output_processor@DV?$string_output_adapter@D@__crt_stdio_output@@V?$standard_base@DV?$string_output_adapter@D@__crt_stdio_output@@@2@@__crt_stdio_output@@AEAA_NXZ 0000000140032ac0 f i libucrt:output.obj
 0001:00031b58       ?type_case_s@?$output_processor@_WV?$stream_output_adapter@_W@__crt_stdio_output@@V?$standard_base@_WV?$stream_output_adapter@_W@__crt_stdio_output@@@2@@__crt_stdio_output@@AEAA_NXZ 0000000140032b58 f i libucrt:output.obj
 0001:00031b58       ?type_case_s@?$output_processor@_WV?$string_output_adapter@_W@__crt_stdio_output@@V?$standard_base@_WV?$string_output_adapter@_W@__crt_stdio_output@@@2@@__crt_stdio_output@@AEAA_NXZ 0000000140032b58 f i libucrt:output.obj
 0001:00031bf0       ?type_case_s_compute_narrow_string_length@?$output_processor@_WV?$stream_output_adapter@_W@__crt_stdio_output@@V?$standard_base@_WV?$stream_output_adapter@_W@__crt_stdio_output@@@2@@__crt_stdio_output@@AEAAHH_W@Z 0000000140032bf0 f i libucrt:output.obj
 0001:00031bf0       ?type_case_s_compute_narrow_string_length@?$output_processor@_WV?$string_output_adapter@_W@__crt_stdio_output@@V?$standard_base@_WV?$string_output_adapter@_W@__crt_stdio_output@@@2@@__crt_stdio_output@@AEAAHH_W@Z 0000000140032bf0 f i libucrt:output.obj
 0001:00031c68       ?validate_stream_is_ansi_if_required@?$__acrt_stdio_char_traits@D@@SA_NQEAU_iobuf@@@Z 0000000140032c68 f i libucrt:output.obj
 0001:00031d04       ?write_string@?$string_output_adapter@D@__crt_stdio_output@@QEBAXQEBDHQEAHAEAV__crt_cached_ptd_host@@@Z 0000000140032d04 f i libucrt:output.obj
 0001:00031da8       ?write_string@?$string_output_adapter@_W@__crt_stdio_output@@QEBAXQEB_WHQEAHAEAV__crt_cached_ptd_host@@@Z 0000000140032da8 f i libucrt:output.obj
 0001:00031e50       ?write_string_impl@?$output_adapter_common@DV?$stream_output_adapter@D@__crt_stdio_output@@@__crt_stdio_output@@IEBAXQEBDHQEAHAEAV__crt_cached_ptd_host@@@Z 0000000140032e50 f i libucrt:output.obj
 0001:00031f1c       ?write_string_impl@?$output_adapter_common@_WV?$stream_output_adapter@_W@__crt_stdio_output@@@__crt_stdio_output@@IEBAXQEB_WHQEAHAEAV__crt_cached_ptd_host@@@Z 0000000140032f1c f i libucrt:output.obj
 0001:00031ff8       __stdio_common_vfprintf    0000000140032ff8 f   libucrt:output.obj
 0001:0003211c       __stdio_common_vfwprintf   000000014003311c f   libucrt:output.obj
 0001:00032240       __stdio_common_vsnprintf_s 0000000140033240 f   libucrt:output.obj
 0001:00032418       __stdio_common_vsprintf    0000000140033418 f   libucrt:output.obj
 0001:0003266c       __stdio_common_vsprintf_s  000000014003366c f   libucrt:output.obj
 0001:00032780       __stdio_common_vswprintf   0000000140033780 f   libucrt:output.obj
 0001:000329dc       ??$parse_floating_point@V?$input_adapter_character_source@V?$string_input_adapter@D@__crt_stdio_input@@@__crt_strtox@@M@__crt_strtox@@YA?AW4SLD_STATUS@@QEAU__crt_locale_pointers@@V?$input_adapter_character_source@V?$string_input_adapter@D@__crt_stdio_input@@@0@QEAM@Z 00000001400339dc f i libucrt:input.obj
 0001:00032a84       ??$parse_floating_point@V?$input_adapter_character_source@V?$string_input_adapter@D@__crt_stdio_input@@@__crt_strtox@@N@__crt_strtox@@YA?AW4SLD_STATUS@@QEAU__crt_locale_pointers@@V?$input_adapter_character_source@V?$string_input_adapter@D@__crt_stdio_input@@@0@QEAN@Z 0000000140033a84 f i libucrt:input.obj
 0001:00032b2c       ??$parse_floating_point_from_source@V?$input_adapter_character_source@V?$string_input_adapter@D@__crt_stdio_input@@@__crt_strtox@@@__crt_strtox@@YA?AW4floating_point_parse_result@0@QEAU__crt_locale_pointers@@AEAV?$input_adapter_character_source@V?$string_input_adapter@D@__crt_stdio_input@@@0@AEAUfloating_point_string@0@@Z 0000000140033b2c f i libucrt:input.obj
 0001:00033310       ??$parse_floating_point_possible_infinity@DV?$input_adapter_character_source@V?$string_input_adapter@D@__crt_stdio_input@@@__crt_strtox@@_K@__crt_strtox@@YA?AW4floating_point_parse_result@0@AEADAEAV?$input_adapter_character_source@V?$string_input_adapter@D@__crt_stdio_input@@@0@_K@Z 0000000140034310 f i libucrt:input.obj
 0001:000334d8       ??$parse_floating_point_possible_nan@DV?$input_adapter_character_source@V?$string_input_adapter@D@__crt_stdio_input@@@__crt_strtox@@_K@__crt_strtox@@YA?AW4floating_point_parse_result@0@AEADAEAV?$input_adapter_character_source@V?$string_input_adapter@D@__crt_stdio_input@@@0@_K@Z 00000001400344d8 f i libucrt:input.obj
 0001:0003374c       ??$parse_floating_point_possible_nan_is_ind@DV?$input_adapter_character_source@V?$string_input_adapter@D@__crt_stdio_input@@@__crt_strtox@@@__crt_strtox@@YA_NAEADAEAV?$input_adapter_character_source@V?$string_input_adapter@D@__crt_stdio_input@@@0@@Z 000000014003474c f i libucrt:input.obj
 0001:000337c4       ??$parse_floating_point_possible_nan_is_snan@DV?$input_adapter_character_source@V?$string_input_adapter@D@__crt_stdio_input@@@__crt_strtox@@@__crt_strtox@@YA_NAEADAEAV?$input_adapter_character_source@V?$string_input_adapter@D@__crt_stdio_input@@@0@@Z 00000001400347c4 f i libucrt:input.obj
 0001:0003383c       ??$parse_floating_point_write_result@M@__crt_strtox@@YA?AW4SLD_STATUS@@W4floating_point_parse_result@0@AEBUfloating_point_string@0@QEAM@Z 000000014003483c f i libucrt:input.obj
 0001:000339ac       ??$parse_floating_point_write_result@N@__crt_strtox@@YA?AW4SLD_STATUS@@W4floating_point_parse_result@0@AEBUfloating_point_string@0@QEAN@Z 00000001400349ac f i libucrt:input.obj
 0001:00033b8c       ??$parse_integer@_KV?$input_adapter_character_source@V?$string_input_adapter@D@__crt_stdio_input@@@__crt_strtox@@$00@__crt_strtox@@YA_KAEAV__crt_cached_ptd_host@@V?$input_adapter_character_source@V?$string_input_adapter@D@__crt_stdio_input@@@0@H_N@Z 0000000140034b8c f i libucrt:input.obj
 0001:00033fb0       ??$parse_integer@_KV?$input_adapter_character_source@V?$string_input_adapter@D@__crt_stdio_input@@@__crt_strtox@@@__crt_strtox@@YA_KQEAU__crt_locale_pointers@@V?$input_adapter_character_source@V?$string_input_adapter@D@__crt_stdio_input@@@0@H_N@Z 0000000140034fb0 f i libucrt:input.obj
 0001:000340b0       ??$process_floating_point_specifier_t@M@?$input_processor@DV?$string_input_adapter@D@__crt_stdio_input@@@__crt_stdio_input@@AEAA_NXZ 00000001400350b0 f i libucrt:input.obj
 0001:00034154       ??$process_floating_point_specifier_t@N@?$input_processor@DV?$string_input_adapter@D@__crt_stdio_input@@@__crt_stdio_input@@AEAA_NXZ 0000000140035154 f i libucrt:input.obj
 0001:000341fc       ??$process_string_specifier_tchar@D@?$input_processor@DV?$string_input_adapter@D@__crt_stdio_input@@@__crt_stdio_input@@AEAA_NW4conversion_mode@1@D@Z 00000001400351fc f i libucrt:input.obj
 0001:000343a8       ??$process_string_specifier_tchar@_W@?$input_processor@DV?$string_input_adapter@D@__crt_stdio_input@@@__crt_stdio_input@@AEAA_NW4conversion_mode@1@_W@Z 00000001400353a8 f i libucrt:input.obj
 0001:00034588       ??$skip_whitespace@Vstring_input_adapter@__crt_stdio_input@@D@__crt_stdio_input@@YAHAEAV?$string_input_adapter@D@0@QEAU__crt_locale_pointers@@@Z 0000000140035588 f i libucrt:input.obj
 0001:000345dc       ??0_LocaleUpdate@@QEAA@QEAU__crt_locale_pointers@@@Z 00000001400355dc f i libucrt:input.obj
 0001:00034678       ??R<lambda_1db4d925c2db10274e92824f631ccf5d>@@QEBA_NXZ 0000000140035678 f i libucrt:input.obj
 0001:00034678       ??R<lambda_bdd123a27a08a14f93fbf44b617d0736>@@QEBA_NXZ 0000000140035678 f i libucrt:input.obj
 0001:00034678       ??R<lambda_ee7c83d9f0cd4f1299194e0a8d424b67>@@QEBA_NXZ 0000000140035678 f i libucrt:input.obj
 0001:000346dc       ?advance@?$format_string_parser@D@__crt_stdio_input@@QEAA_NXZ 00000001400356dc f i libucrt:input.obj
 0001:000348a4       ?as_double@floating_point_value@__crt_strtox@@QEBAAEANXZ 00000001400358a4 f i libucrt:input.obj
 0001:000348e0       ?as_float@floating_point_value@__crt_strtox@@QEBAAEAMXZ 00000001400358e0 f i libucrt:input.obj
 0001:0003491c       ?assemble_floating_point_value@__crt_strtox@@YA?AW4SLD_STATUS@@_KH_N1AEBVfloating_point_value@1@@Z 000000014003591c f i libucrt:input.obj
 0001:00034cb4       ?assemble_floating_point_value_from_big_integer@__crt_strtox@@YA?AW4SLD_STATUS@@AEBUbig_integer@1@I_N1AEBVfloating_point_value@1@@Z 0000000140035cb4 f i libucrt:input.obj
 0001:00034e14       ?convert_decimal_string_to_floating_type_common@__crt_strtox@@YA?AW4SLD_STATUS@@AEBUfloating_point_string@1@AEBVfloating_point_value@1@@Z 0000000140035e14 f i libucrt:input.obj
 0001:00036c7c       ?convert_hexadecimal_string_to_floating_type_common@__crt_strtox@@YA?AW4SLD_STATUS@@AEBUfloating_point_string@1@AEBVfloating_point_value@1@@Z 0000000140037c7c f i libucrt:input.obj
 0001:00036d30       ?divide@__crt_strtox@@YA_KAEAUbig_integer@1@AEBU21@@Z 0000000140037d30 f i libucrt:input.obj
 0001:000371bc       ?length@?$format_string_parser@D@__crt_stdio_input@@QEBA_KXZ 00000001400381bc f i libucrt:input.obj
 0001:00037258       ?process@?$input_processor@DV?$string_input_adapter@D@__crt_stdio_input@@@__crt_stdio_input@@QEAAHXZ 0000000140038258 f i libucrt:input.obj
 0001:0003734c       ?process_conversion_specifier@?$input_processor@DV?$string_input_adapter@D@__crt_stdio_input@@@__crt_stdio_input@@AEAA_NXZ 000000014003834c f i libucrt:input.obj
 0001:0003746c       ?process_floating_point_specifier@?$input_processor@DV?$string_input_adapter@D@__crt_stdio_input@@@__crt_stdio_input@@AEAA_NXZ 000000014003846c f i libucrt:input.obj
 0001:000374dc       ?process_integer_specifier@?$input_processor@DV?$string_input_adapter@D@__crt_stdio_input@@@__crt_stdio_input@@AEAA_NI_N@Z 00000001400384dc f i libucrt:input.obj
 0001:00037594       ?process_literal_character_tchar@?$input_processor@DV?$string_input_adapter@D@__crt_stdio_input@@@__crt_stdio_input@@AEAA_ND@Z 0000000140038594 f i libucrt:input.obj
 0001:00037618       ?process_state@?$input_processor@DV?$string_input_adapter@D@__crt_stdio_input@@@__crt_stdio_input@@AEAA_NXZ 0000000140038618 f i libucrt:input.obj
 0001:000376d0       ?process_string_specifier@?$input_processor@DV?$string_input_adapter@D@__crt_stdio_input@@@__crt_stdio_input@@AEAA_NW4conversion_mode@2@@Z 00000001400386d0 f i libucrt:input.obj
 0001:0003775c       ?scan_conversion_specifier@?$format_string_parser@D@__crt_stdio_input@@AEAA_NXZ 000000014003875c f i libucrt:input.obj
 0001:00037904       ?scan_optional_field_width@?$format_string_parser@D@__crt_stdio_input@@AEAA_NXZ 0000000140038904 f i libucrt:input.obj
 0001:000379a4       ?scan_optional_length_modifier@?$format_string_parser@D@__crt_stdio_input@@AEAAXXZ 00000001400389a4 f i libucrt:input.obj
 0001:00037adc       ?scan_scanset_range@?$format_string_parser@D@__crt_stdio_input@@AEAA_NXZ 0000000140038adc f i libucrt:input.obj
 0001:00037c7c       ?write_character@?$input_processor@DV?$string_input_adapter@D@__crt_stdio_input@@@__crt_stdio_input@@AEAA_NQEFA_W_KAEAPEFA_WAEA_KD@Z 0000000140038c7c f i libucrt:input.obj
 0001:00037d14       ?write_integer@?$input_processor@DV?$string_input_adapter@D@__crt_stdio_input@@@__crt_stdio_input@@AEAA_N_K@Z 0000000140038d14 f i libucrt:input.obj
 0001:00037d8c       __stdio_common_vsscanf     0000000140038d8c f   libucrt:input.obj
 0001:000385bc       ??$ftprintf@PEAU_iobuf@@PEB_WAEBQEB_WAEBQEB_WAEBI@?$__crt_char_traits@_W@@SAH$$QEAPEAU_iobuf@@$$QEAPEB_WAEBQEB_W2AEBI@Z 00000001400395bc f i libucrt:assert.obj
 0001:000386bc       _wassert                   00000001400396bc f   libucrt:assert.obj
 0001:00038730       fwprintf                   0000000140039730 f i libucrt:assert.obj
 0001:00038774       swprintf                   0000000140039774 f i libucrt:assert.obj
 0001:000387c8       atan2f                     00000001400397c8 f   libucrt:atan2f.obj
 0001:00038bc0       cosf                       0000000140039bc0 f   libucrt:cosf.obj
 0001:000390c0       fmodf                      000000014003a0c0 f   libucrt:fmodf.obj
 0001:00039300       powf                       000000014003a300 f   libucrt:powf.obj
 0001:0003a1d0       sinf                       000000014003b1d0 f   libucrt:sinf.obj
 0001:0003a8c8       sqrtf                      000000014003b8c8 f   libucrt:sqrtf.obj
 0001:0003a970       tanf                       000000014003b970 f   libucrt:tanf.obj
 0001:0003afe4       _seh_filter_exe            000000014003bfe4 f   libucrt:exception_filter.obj
 0001:0003b168       _query_app_type            000000014003c168 f   libucrt:report_runtime_error.obj
 0001:0003b170       _set_app_type              000000014003c170 f   libucrt:report_runtime_error.obj
 0001:0003b178       __acrt_has_user_matherr    000000014003c178 f   libucrt:matherr.obj
 0001:0003b198       __acrt_initialize_user_matherr 000000014003c198 f   libucrt:matherr.obj
 0001:0003b1a0       __acrt_invoke_user_matherr 000000014003c1a0 f   libucrt:matherr.obj
 0001:0003b1d8       __setusermatherr           000000014003c1d8 f   libucrt:matherr.obj
 0001:0003b3c0       __acrt_allocate_buffer_for_argv 000000014003c3c0 f   libucrt:argv_parsing.obj
 0001:0003b420       _configure_narrow_argv     000000014003c420 f   libucrt:argv_parsing.obj
 0001:0003b7a8       __dcrt_uninitialize_environments_nolock 000000014003c7a8 f   libucrt:environment_initialization.obj
 0001:0003b7ec       _initialize_narrow_environment 000000014003c7ec f   libucrt:environment_initialization.obj
 0001:0003b7f4       _get_narrow_winmain_command_line 000000014003c7f4 f   libucrt:argv_winmain.obj
 0001:0003b864       _initterm                  000000014003c864 f   libucrt:initterm.obj
 0001:0003b8a8       _initterm_e                000000014003c8a8 f   libucrt:initterm.obj
 0001:0003bb90       __acrt_initialize_thread_local_exit_callback 000000014003cb90 f   libucrt:exit.obj
 0001:0003bb98       _c_exit                    000000014003cb98 f   libucrt:exit.obj
 0001:0003bba8       _cexit                     000000014003cba8 f   libucrt:exit.obj
 0001:0003bbb8       _exit                      000000014003cbb8 f   libucrt:exit.obj
 0001:0003bbc4       _register_thread_local_exe_atexit_callback 000000014003cbc4 f   libucrt:exit.obj
 0001:0003bc04       exit                       000000014003cc04 f   libucrt:exit.obj
 0001:0003bc10       _get_fmode                 000000014003cc10 f   libucrt:setmode.obj
 0001:0003bc40       _set_fmode                 000000014003cc40 f   libucrt:setmode.obj
 0001:0003bc80       _setmode_nolock            000000014003cc80 f   libucrt:setmode.obj
 0001:0003bdd0       __acrt_set_locale_changed  000000014003cdd0 f   libucrt:wsetlocale.obj
 0001:0003bddc       __acrt_uninitialize_locale 000000014003cddc f   libucrt:wsetlocale.obj
 0001:0003be0c       _configthreadlocale        000000014003ce0c f   libucrt:wsetlocale.obj
 0001:0003be78       _query_new_mode            000000014003ce78 f   libucrt:new_mode.obj
 0001:0003be80       _set_new_mode              000000014003ce80 f   libucrt:new_mode.obj
 0001:0003beac       __p__commode               000000014003ceac f   libucrt:ncommode.obj
 0001:0003c1fc       _crt_atexit                000000014003d1fc f   libucrt:onexit.obj
 0001:0003c20c       _execute_onexit_table      000000014003d20c f   libucrt:onexit.obj
 0001:0003c250       _initialize_onexit_table   000000014003d250 f   libucrt:onexit.obj
 0001:0003c278       _register_onexit_function  000000014003d278 f   libucrt:onexit.obj
 0001:0003c3ec       __acrt_initialize          000000014003d3ec f   libucrt:initialization.obj
 0001:0003c400       __acrt_uninitialize        000000014003d400 f   libucrt:initialization.obj
 0001:0003c438       terminate                  000000014003d438 f   libucrt:terminate.obj
 0001:0003c464       strcpy_s                   000000014003d464 f   libucrt:strcpy_s.obj
 0001:0003c4c4       abort                      000000014003d4c4 f   libucrt:abort.obj
 0001:0003c51c       calloc                     000000014003d51c f   libucrt:calloc.obj
 0001:0003c524       wcsncmp                    000000014003d524 f   libucrt:wcsncmp.obj
 0001:0003c550       _free_base                 000000014003d550 f   libucrt:free_base.obj
 0001:0003c58c       _malloc_base               000000014003d58c f   libucrt:malloc_base.obj
 0001:0003c5ec       _realloc_base              000000014003d5ec f   libucrt:realloc_base.obj
 0001:0003c668       ?get_raw_ptd_noexit@__crt_cached_ptd_host@@QEAAPEAU__acrt_ptd@@XZ 000000014003d668 f i libucrt:invalid_parameter.obj
 0001:0003c6d4       ?value@?$dual_state_global@P6AXPEB_W00I_K@Z@__crt_state_management@@QEAAAEAP6AXPEB_W00I_K@ZAEAV__crt_cached_ptd_host@@@Z 000000014003d6d4 f i libucrt:invalid_parameter.obj
 0001:0003c720       __acrt_call_reportfault    000000014003d720 f   libucrt:invalid_parameter.obj
 0001:0003c87c       __acrt_initialize_invalid_parameter_handler 000000014003d87c f   libucrt:invalid_parameter.obj
 0001:0003c884       _invalid_parameter         000000014003d884 f   libucrt:invalid_parameter.obj
 0001:0003c920       _invalid_parameter_internal 000000014003d920 f   libucrt:invalid_parameter.obj
 0001:0003c9f0       _invalid_parameter_noinfo  000000014003d9f0 f   libucrt:invalid_parameter.obj
 0001:0003ca10       _invoke_watson             000000014003da10 f   libucrt:invalid_parameter.obj
 0001:0003ca58       __pctype_func              000000014003da58 f   libucrt:ctype.obj
 0001:0003ca88       _isctype_l                 000000014003da88 f   libucrt:isctype.obj
 0001:0003cb90       __acrt_errno_from_os_error 000000014003db90 f   libucrt:errno.obj
 0001:0003cbd8       __acrt_errno_map_os_error  000000014003dbd8 f   libucrt:errno.obj
 0001:0003cc20       __acrt_errno_map_os_error_ptd 000000014003dc20 f   libucrt:errno.obj
 0001:0003cc44       __doserrno                 000000014003dc44 f   libucrt:errno.obj
 0001:0003cc64       _errno                     000000014003dc64 f   libucrt:errno.obj
 0001:0003cc84       __acrt_update_locale_info  000000014003dc84 f   libucrt:locale_update.obj
 0001:0003ccb8       __acrt_update_locale_info_explicit 000000014003dcb8 f   libucrt:locale_update.obj
 0001:0003ccf0       __acrt_update_multibyte_info 000000014003dcf0 f   libucrt:locale_update.obj
 0001:0003cd24       __acrt_update_multibyte_info_explicit 000000014003dd24 f   libucrt:locale_update.obj
 0001:0003d0d4       __acrt_getptd              000000014003e0d4 f   libucrt:per_thread_data.obj
 0001:0003d1a8       __acrt_getptd_head         000000014003e1a8 f   libucrt:per_thread_data.obj
 0001:0003d24c       __acrt_getptd_noexit       000000014003e24c f   libucrt:per_thread_data.obj
 0001:0003d314       __acrt_getptd_noexit_explicit 000000014003e314 f   libucrt:per_thread_data.obj
 0001:0003d3d4       __acrt_initialize_ptd      000000014003e3d4 f   libucrt:per_thread_data.obj
 0001:0003d410       __acrt_uninitialize_ptd    000000014003e410 f   libucrt:per_thread_data.obj
 0001:0003d434       _copysign                  000000014003e434 f   libucrt:_copysign.obj
 0001:0003d468       _decomp                    000000014003e468 f   libucrt:util.obj
 0001:0003d598       _set_exp                   000000014003e598 f   libucrt:util.obj
 0001:0003d5d0       _sptype                    000000014003e5d0 f   libucrt:util.obj
 0001:0003d644       _errcode                   000000014003e644 f   libucrt:fpexcept.obj
 0001:0003d688       _except2                   000000014003e688 f   libucrt:fpexcept.obj
 0001:0003d790       _handle_exc                000000014003e790 f   libucrt:fpexcept.obj
 0001:0003da88       _handle_qnan2              000000014003ea88 f   libucrt:fpexcept.obj
 0001:0003da90       _raise_exc                 000000014003ea90 f   libucrt:fpexcept.obj
 0001:0003dab8       _raise_exc_ex              000000014003eab8 f   libucrt:fpexcept.obj
 0001:0003ddc8       _raise_excf                000000014003edc8 f   libucrt:fpexcept.obj
 0001:0003ddf4       _set_errno_from_matherr    000000014003edf4 f   libucrt:fpexcept.obj
 0001:0003de24       _umatherr                  000000014003ee24 f   libucrt:fpexcept.obj
 0001:0003def4       _clrfp                     000000014003eef4 f   libucrt:fpctrl.obj
 0001:0003df14       _ctrlfp                    000000014003ef14 f   libucrt:fpctrl.obj
 0001:0003df90       _set_statfp                000000014003ef90 f   libucrt:fpctrl.obj
 0001:0003dfb0       _statfp                    000000014003efb0 f   libucrt:fpctrl.obj
 0001:0003dfc4       _calloc_base               000000014003efc4 f   libucrt:calloc_base.obj
 0001:0003e1fc       __acrt_AppPolicyGetProcessTerminationMethodInternal 000000014003f1fc f   libucrt:winapi_thunks.obj
 0001:0003e254       __acrt_AppPolicyGetShowDeveloperDiagnosticInternal 000000014003f254 f   libucrt:winapi_thunks.obj
 0001:0003e2ac       __acrt_AppPolicyGetWindowingModelInternal 000000014003f2ac f   libucrt:winapi_thunks.obj
 0001:0003e304       __acrt_AreFileApisANSI     000000014003f304 f   libucrt:winapi_thunks.obj
 0001:0003e348       __acrt_FlsAlloc            000000014003f348 f   libucrt:winapi_thunks.obj
 0001:0003e350       __acrt_FlsFree             000000014003f350 f   libucrt:winapi_thunks.obj
 0001:0003e358       __acrt_FlsGetValue         000000014003f358 f   libucrt:winapi_thunks.obj
 0001:0003e360       __acrt_FlsSetValue         000000014003f360 f   libucrt:winapi_thunks.obj
 0001:0003e368       __acrt_InitializeCriticalSectionEx 000000014003f368 f   libucrt:winapi_thunks.obj
 0001:0003e3d8       __acrt_LCMapStringEx       000000014003f3d8 f   libucrt:winapi_thunks.obj
 0001:0003e4c4       __acrt_LocaleNameToLCID    000000014003f4c4 f   libucrt:winapi_thunks.obj
 0001:0003e524       __acrt_MessageBoxW         000000014003f524 f   libucrt:winapi_thunks.obj
 0001:0003e5a0       __acrt_can_show_message_box 000000014003f5a0 f   libucrt:winapi_thunks.obj
 0001:0003e610       __acrt_get_parent_window   000000014003f610 f   libucrt:winapi_thunks.obj
 0001:0003e69c       __acrt_initialize_winapi_thunks 000000014003f69c f   libucrt:winapi_thunks.obj
 0001:0003e6c0       __acrt_is_interactive      000000014003f6c0 f   libucrt:winapi_thunks.obj
 0001:0003e7a0       __acrt_uninitialize_winapi_thunks 000000014003f7a0 f   libucrt:winapi_thunks.obj
 0001:0003e7e4       _fcloseall                 000000014003f7e4 f   libucrt:closeall.obj
 0001:0003e898       __acrt_stdio_free_buffer_nolock 000000014003f898 f   libucrt:_freebuf.obj
 0001:0003ead0       __acrt_initialize_lowio    000000014003fad0 f   libucrt:ioinit.obj
 0001:0003eb0c       __acrt_uninitialize_lowio  000000014003fb0c f   libucrt:ioinit.obj
 0001:0003eb4c       ?__acrt_stdio_allocate_stream@@YA?AV__crt_stdio_stream@@XZ 000000014003fb4c f   libucrt:stream.obj
 0001:0003eba4       ?__acrt_stdio_free_stream@@YAXV__crt_stdio_stream@@@Z 000000014003fba4 f   libucrt:stream.obj
 0001:0003ecac       ??$__acrt_stdio_parse_mode@D@@YA?AU__acrt_stdio_stream_mode@@QEBD@Z 000000014003fcac f i libucrt:openfile.obj
 0001:0003ef70       _openfile                  000000014003ff70 f   libucrt:openfile.obj
 0001:0003f00c       _fileno                    000000014004000c f   libucrt:fileno.obj
 0001:0003f0ac       _close_internal            00000001400400ac f   libucrt:close.obj
 0001:0003f170       _close_nolock              0000000140040170 f   libucrt:close.obj
 0001:0003f208       _close_nolock_internal     0000000140040208 f   libucrt:close.obj
 0001:0003f2d8       __acrt_initialize_locks    00000001400402d8 f   libucrt:locks.obj
 0001:0003f320       __acrt_lock                0000000140040320 f   libucrt:locks.obj
 0001:0003f33c       __acrt_uninitialize_locks  000000014004033c f   libucrt:locks.obj
 0001:0003f374       __acrt_unlock              0000000140040374 f   libucrt:locks.obj
 0001:0003f41c       _commit                    000000014004041c f   libucrt:commit.obj
 0001:0003fccc       _write                     0000000140040ccc f   libucrt:write.obj
 0001:0003fd64       _write_internal            0000000140040d64 f   libucrt:write.obj
 0001:0003fe8c       _write_nolock              0000000140040e8c f   libucrt:write.obj
 0001:0004019c       __acrt_stdio_refill_and_read_narrow_nolock 000000014004119c f   libucrt:_filbuf.obj
 0001:000407b4       _read                      00000001400417b4 f   libucrt:read.obj
 0001:000408d0       _read_nolock               00000001400418d0 f   libucrt:read.obj
 0001:00040ef0       _lseeki64                  0000000140041ef0 f   libucrt:lseek.obj
 0001:00040f8c       _lseeki64_internal         0000000140041f8c f   libucrt:lseek.obj
 0001:00040f94       _lseeki64_nolock           0000000140041f94 f   libucrt:lseek.obj
 0001:00041030       _lseeki64_nolock_internal  0000000140042030 f   libucrt:lseek.obj
 0001:00041038       __acrt_stdio_allocate_buffer_nolock 0000000140042038 f   libucrt:_getbuf.obj
 0001:000410a4       strnlen                    00000001400420a4 f   libucrt:strnlen.obj
 0001:000411f4       wcsnlen                    00000001400421f4 f   libucrt:strnlen.obj
 0001:00041efc       __acrt_fp_format           0000000140042efc f   libucrt:cvt.obj
 0001:000421e4       _wctomb_internal           00000001400431e4 f   libucrt:wctomb.obj
 0001:00042394       _mbtowc_internal           0000000140043394 f   libucrt:mbtowc.obj
 0001:0004250c       _mbtowc_l                  000000014004350c f   libucrt:mbtowc.obj
 0001:000425b0       _get_printf_count_output   00000001400435b0 f   libucrt:printf_count_output.obj
 0001:000425c8       _fputwc_nolock_internal    00000001400435c8 f   libucrt:fputwc.obj
 0001:00042754       _fputc_nolock_internal     0000000140043754 f   libucrt:fputc.obj
 0001:0004276c       __acrt_should_use_temporary_buffer 000000014004376c f   libucrt:_sftbuf.obj
 0001:000427b4       __acrt_stdio_begin_temporary_buffering_nolock 00000001400437b4 f   libucrt:_sftbuf.obj
 0001:0004287c       __acrt_stdio_end_temporary_buffering_nolock 000000014004387c f   libucrt:_sftbuf.obj
 0001:000428c0       isspace                    00000001400438c0 f   libucrt:_ctype.obj
 0001:00042968       fegetround                 0000000140043968 f   libucrt:fegetround.obj
 0001:00042abc       _itow_s                    0000000140043abc f   libucrt:xtoa.obj
 0001:00042adc       _set_error_mode            0000000140043adc f   libucrt:set_error_mode.obj
 0001:00042b1c       wcscat_s                   0000000140043b1c f   libucrt:wcscat_s.obj
 0001:00042ba0       wcscpy_s                   0000000140043ba0 f   libucrt:wcscpy_s.obj
 0001:00042c08       wcsncat_s                  0000000140043c08 f   libucrt:wcsncat_s.obj
 0001:00042d0c       ??$__acrt_convert_wcs_mbs_cp@_WDV<lambda_f788ae46380686e8b737efdd8c720d07>@@U__crt_win32_buffer_no_resizing@@@@YAHQEB_WAEAV?$__crt_win32_buffer@DU__crt_win32_buffer_no_resizing@@@@AEBV<lambda_f788ae46380686e8b737efdd8c720d07>@@I@Z 0000000140043d0c f i libucrt:getmodulefilenamea.obj
 0001:00042e28       __acrt_GetModuleFileNameA  0000000140043e28 f   libucrt:getmodulefilenamea.obj
 0001:00042f4c       __acrt_show_wide_message_box 0000000140043f4c f   libucrt:crtmbox.obj
 0001:00043118       setvbuf                    0000000140044118 f   libucrt:setvbuf.obj
 0001:00043298       __acrt_get_sigabrt_handler 0000000140044298 f   libucrt:signal.obj
 0001:000432c8       __acrt_initialize_signal_handlers 00000001400442c8 f   libucrt:signal.obj
 0001:000432e8       raise                      00000001400442e8 f   libucrt:signal.obj
 0001:0004368c       _handle_error              000000014004468c f   libucrt:libm_error.obj
 0001:000437b4       _handle_errorf             00000001400447b4 f   libucrt:libm_error.obj
 0001:000438e8       _handle_nan                00000001400448e8 f   libucrt:libm_error.obj
 0001:00043904       _handle_nanf               0000000140044904 f   libucrt:libm_error.obj
 0001:00043920       __remainder_piby2d2f_forAsm 0000000140044920 f   libucrt:remainder_piby2f_forasm.obj
 0001:00043a70       __remainder_piby2_fma3     0000000140044a70 f   libucrt:remainder_piby2_forfma3.obj
 0001:00043c60       __remainder_piby2_fma3_bdl 0000000140044c60 f   libucrt:remainder_piby2_forfma3.obj
 0001:00043cd8       _cosf_special              0000000140044cd8 f   libucrt:sincos_special.obj
 0001:00043d78       _sinf_special              0000000140044d78 f   libucrt:sincos_special.obj
 0001:00043d8c       _tanf_special              0000000140044d8c f   libucrt:sincos_special.obj
 0001:00043da0       __acrt_initialize_fma3     0000000140044da0 f   libucrt:fma3_available.obj
 0001:00043e10       _powf_special              0000000140044e10 f   libucrt:pow_special.obj
 0001:00043f60       __remainder_piby2d2f_forC  0000000140044f60 f   libucrt:remainder_piby2f_forc.obj
 0001:00044100       ??$__acrt_convert_wcs_mbs_cp@D_WV<lambda_7c9dea7b4ca7285d2cdb541a38da6275>@@U__crt_win32_buffer_internal_dynamic_resizing@@@@YAHQEBDAEAV?$__crt_win32_buffer@_WU__crt_win32_buffer_internal_dynamic_resizing@@@@AEBV<lambda_7c9dea7b4ca7285d2cdb541a38da6275>@@I@Z 0000000140045100 f i libucrt:argv_wildcards.obj
 0001:0004427c       ??$__acrt_convert_wcs_mbs_cp@_WDV<lambda_d8593a27d1aa8c02be35c86a17d324c4>@@U__crt_win32_buffer_internal_dynamic_resizing@@@@YAHQEB_WAEAV?$__crt_win32_buffer@DU__crt_win32_buffer_internal_dynamic_resizing@@@@AEBV<lambda_d8593a27d1aa8c02be35c86a17d324c4>@@I@Z 000000014004527c f i libucrt:argv_wildcards.obj
 0001:00044b24       __acrt_expand_narrow_argv_wildcards 0000000140045b24 f   libucrt:argv_wildcards.obj
 0001:00045324       __acrt_initialize_multibyte 0000000140046324 f   libucrt:mbctype.obj
 0001:00045384       __acrt_update_thread_multibyte_data 0000000140046384 f   libucrt:mbctype.obj
 0001:000453a0       _setmbcp_nolock            00000001400463a0 f   libucrt:mbctype.obj
 0001:000456d4       _ismbblead                 00000001400466d4 f   libucrt:ismbbyte.obj
 0001:000456e8       __acrt_initialize_command_line 00000001400466e8 f   libucrt:argv_data.obj
 0001:00045710       __acrt_MultiByteToWideChar 0000000140046710 f   libucrt:multibytetowidechar.obj
 0001:0004576c       __acrt_WideCharToMultiByte 000000014004676c f   libucrt:widechartomultibyte.obj
 0001:0004581c       __dcrt_get_narrow_environment_from_os 000000014004681c f   libucrt:get_environment_from_os.obj
 0001:0004592c       __acrt_get_developer_information_policy 000000014004692c f   libucrt:win_policies.obj
 0001:00045980       __acrt_get_process_end_policy 0000000140046980 f   libucrt:win_policies.obj
 0001:000459bc       __acrt_get_windowing_model_policy 00000001400469bc f   libucrt:win_policies.obj
 0001:00045a28       __acrt_lowio_create_handle_array 0000000140046a28 f   libucrt:osfinfo.obj
 0001:00045ad0       __acrt_lowio_destroy_handle_array 0000000140046ad0 f   libucrt:osfinfo.obj
 0001:00045b20       __acrt_lowio_ensure_fh_exists 0000000140046b20 f   libucrt:osfinfo.obj
 0001:00045bc8       __acrt_lowio_lock_fh       0000000140046bc8 f   libucrt:osfinfo.obj
 0001:00045bf0       __acrt_lowio_set_os_handle 0000000140046bf0 f   libucrt:osfinfo.obj
 0001:00045cb0       __acrt_lowio_unlock_fh     0000000140046cb0 f   libucrt:osfinfo.obj
 0001:00045cd8       _alloc_osfhnd              0000000140046cd8 f   libucrt:osfinfo.obj
 0001:00045e18       _free_osfhnd               0000000140046e18 f   libucrt:osfinfo.obj
 0001:00045ed4       _get_osfhandle             0000000140046ed4 f   libucrt:osfinfo.obj
 0001:00045f4c       __acrt_initialize_fmode    0000000140046f4c f   libucrt:txtmode.obj
 0001:00045f68       __acrt_locale_free_monetary 0000000140046f68 f   libucrt:initmon.obj
 0001:00046074       __acrt_locale_free_numeric 0000000140047074 f   libucrt:initnum.obj
 0001:00046114       __acrt_locale_free_time    0000000140047114 f   libucrt:inittime.obj
 0001:0004621c       __acrt_GetStringTypeA      000000014004721c f   libucrt:getstringtypea.obj
 0001:000463b8       __acrt_add_locale_ref      00000001400473b8 f   libucrt:locale_refcounting.obj
 0001:00046444       __acrt_free_locale         0000000140047444 f   libucrt:locale_refcounting.obj
 0001:000465bc       __acrt_locale_add_lc_time_reference 00000001400475bc f   libucrt:locale_refcounting.obj
 0001:000465e4       __acrt_locale_free_lc_time_if_unreferenced 00000001400475e4 f   libucrt:locale_refcounting.obj
 0001:0004661c       __acrt_locale_release_lc_time_reference 000000014004761c f   libucrt:locale_refcounting.obj
 0001:00046644       __acrt_release_locale_ref  0000000140047644 f   libucrt:locale_refcounting.obj
 0001:000466ec       __acrt_update_thread_locale_data 00000001400476ec f   libucrt:locale_refcounting.obj
 0001:0004675c       _updatetlocinfoEx_nolock   000000014004775c f   libucrt:locale_refcounting.obj
 0001:000467c4       _recalloc_base             00000001400477c4 f   libucrt:recalloc.obj
 0001:0004685c       __acrt_initialize_heap     000000014004785c f   libucrt:heap_handle.obj
 0001:00046878       __acrt_uninitialize_heap   0000000140047878 f   libucrt:heap_handle.obj
 0001:00046884       __acrt_execute_initializers 0000000140047884 f   libucrt:shared_initialization.obj
 0001:00046918       __acrt_execute_uninitializers 0000000140047918 f   libucrt:shared_initialization.obj
 0001:00046960       __acrt_initialize_new_handler 0000000140047960 f   libucrt:new_handler.obj
 0001:00046968       _callnewh                  0000000140047968 f   libucrt:new_handler.obj
 0001:000469a4       _query_new_handler         00000001400479a4 f   libucrt:new_handler.obj
 0001:000469f0       _get_fpsr                  00000001400479f0 f   libucrt:fpsr.obj
 0001:00046a00       _set_fpsr                  0000000140047a00 f   libucrt:fpsr.obj
 0001:00046a0a       _fclrf                     0000000140047a0a f   libucrt:fpsr.obj
 0001:00046a1e       _frnd                      0000000140047a1e f   libucrt:fpsr.obj
 0001:00046a40       __acrt_DownlevelLocaleNameToLCID 0000000140047a40 f   libucrt:lcidtoname_downlevel.obj
 0001:00046ae8       __ascii_wcsnicmp           0000000140047ae8 f   libucrt:wcsnicmp.obj
 0001:00046b34       __ascii_strnicmp           0000000140047b34 f   libucrt:strnicmp.obj
 0001:00046b80       _strnicmp                  0000000140047b80 f   libucrt:strnicmp.obj
 0001:00046bd0       _strnicmp_l                0000000140047bd0 f   libucrt:strnicmp.obj
 0001:0004728c       _sopen_nolock              000000014004828c f   libucrt:open.obj
 0001:000473a8       _sopen_s                   00000001400483a8 f   libucrt:open.obj
 0001:000473dc       _wsopen_nolock             00000001400483dc f   libucrt:open.obj
 0001:000477cc       _isatty                    00000001400487cc f   libucrt:isatty.obj
 0001:0004782c       ?__mbrtowc_utf8@__crt_mbstring@@YA_KPEA_WPEBD_KPEAU_Mbstatet@@AEAV__crt_cached_ptd_host@@@Z 000000014004882c f   libucrt:mbrtowc.obj
 0001:00047870       ?__mbsrtowcs_utf8@__crt_mbstring@@YA_KPEA_WPEAPEBD_KPEAU_Mbstatet@@AEAV__crt_cached_ptd_host@@@Z 0000000140048870 f   libucrt:mbrtowc.obj
 0001:00047a14       _putwch_nolock             0000000140048a14 f   libucrt:putwch.obj
 0001:00047a50       __acrt_fp_strflt_to_string 0000000140048a50 f   libucrt:_fptostr.obj
 0001:00047bd4       __acrt_fltout              0000000140048bd4 f   libucrt:cfout.obj
 0001:00048e14       ?__c32rtomb_utf8@__crt_mbstring@@YA_KPEAD_UPEAU_Mbstatet@@AEAV__crt_cached_ptd_host@@@Z 0000000140049e14 f   libucrt:c32rtomb.obj
 0001:00049128       __acrt_stdio_flush_and_write_narrow_nolock 000000014004a128 f   libucrt:_flsbuf.obj
 0001:000491ec       __acrt_stdio_flush_and_write_wide_nolock 000000014004a1ec f   libucrt:_flsbuf.obj
 0001:000492b0       __acrt_fenv_get_common_round_control 000000014004a2b0 f   libucrt:_fenvutils.obj
 0001:000492bc       __acrt_fenv_get_control    000000014004a2bc f   libucrt:_fenvutils.obj
 0001:000493a0       __acrt_fenv_get_status     000000014004a3a0 f   libucrt:_fenvutils.obj
 0001:000493f8       __acrt_fenv_set_control    000000014004a3f8 f   libucrt:_fenvutils.obj
 0001:00049534       __acrt_fenv_set_status     000000014004a534 f   libucrt:_fenvutils.obj
 0001:000495b0       qsort                      000000014004a5b0 f   libucrt:qsort.obj
 0001:000499c0       strncpy_s                  000000014004a9c0 f   libucrt:strncpy_s.obj
 0001:00049b50       strpbrk                    000000014004ab50 f   libucrt:strpbrk.obj
 0001:00049f18       _mbsdec                    000000014004af18 f   libucrt:mbsdec.obj
 0001:00049f20       _mbsdec_l                  000000014004af20 f   libucrt:mbsdec.obj
 0001:0004a2d4       __acrt_LCMapStringA        000000014004b2d4 f   libucrt:lcmapstringa.obj
 0001:0004a384       _msize_base                000000014004b384 f   libucrt:msize.obj
 0001:0004a3c0       _chsize_nolock             000000014004b3c0 f   libucrt:chsize.obj
 0001:0004a458       _chsize_nolock_internal    000000014004b458 f   libucrt:chsize.obj
 0001:0004a5ec       ?__mbrtoc32_utf8@__crt_mbstring@@YA_KPEA_UPEBD_KPEAU_Mbstatet@@AEAV__crt_cached_ptd_host@@@Z 000000014004b5ec f   libucrt:mbrtoc32.obj
 0001:0004a7c8       __dcrt_lowio_ensure_console_output_initialized 000000014004b7c8 f   libucrt:initcon.obj
 0001:0004a81c       __dcrt_terminate_console_output 000000014004b81c f   libucrt:initcon.obj
 0001:0004a838       __dcrt_write_console       000000014004b838 f   libucrt:initcon.obj
 0001:0004a8f8       _controlfp_s               000000014004b8f8 f   libucrt:contrlfp.obj
 0001:0004a95c       fegetenv                   000000014004b95c f   libucrt:fegetenv.obj
 0001:0004a97c       fesetenv                   000000014004b97c f   libucrt:fesetenv.obj
 0001:0004a9c8       feholdexcept               000000014004b9c8 f   libucrt:feholdexcept.obj
 0001:0004aa18       ceil                       000000014004ba18 f   libucrt:ceil.obj
 0001:0004aae0       log10                      000000014004bae0 f   libucrt:log10.obj
 0001:0004b08c       ?reset_and_return@__crt_mbstring@@YA_K_KPEAU_Mbstatet@@@Z 000000014004c08c f   libucrt:common_utf8.obj
 0001:0004b094       ?return_illegal_sequence@__crt_mbstring@@YA_KPEAU_Mbstatet@@AEAV__crt_cached_ptd_host@@@Z 000000014004c094 f   libucrt:common_utf8.obj
 0001:0004b0a8       __strncnt                  000000014004c0a8 f   libucrt:strncnt.obj
 0001:0004b0c0       _clearfp                   000000014004c0c0 f   libucrt:ieee.obj
 0001:0004b130       _control87                 000000014004c130 f   libucrt:ieee.obj
 0001:0004b400       _log10_special             000000014004c400 f   libucrt:log_special.obj
 0001:0004b4c0       _FindPESection             000000014004c4c0 f   LIBCMT:pesect.obj
 0001:0004b510       _IsNonwritableInCurrentImage 000000014004c510 f   LIBCMT:pesect.obj
 0001:0004b560       _ValidateImageBase         000000014004c560 f   LIBCMT:pesect.obj
 0001:0004b58c       ??_Etype_info@@UEAAPEAXI@Z 000000014004c58c f i LIBCMT:std_type_info_static.obj
 0001:0004b58c       ??_Gtype_info@@UEAAPEAXI@Z 000000014004c58c f i LIBCMT:std_type_info_static.obj
 0001:0004b5b8       ??3@YAXPEAX_K@Z            000000014004c5b8 f   LIBCMT:delete_scalar_size.obj
 0001:0004b5c0       __GSHandlerCheck_EH        000000014004c5c0 f   LIBCMT:gshandlereh.obj
 0001:0004b640       ??3@YAXPEAX@Z              000000014004c640 f   LIBCMT:delete_scalar.obj
 0001:0004b648       __C_specific_handler_noexcept 000000014004c648 f   libvcruntime:chandler_noexcept.obj
 0001:0004b6b0       memcmp                     000000014004c6b0 f   libvcruntime:memcmp.obj
 0001:0004b778       strrchr                    000000014004c778 f   libvcruntime:strrchr.obj
 0001:0004b8d0       _guard_dispatch_icall_nop  000000014004c8d0 f   LIBCMT:guard_dispatch.obj
 0001:0004b8f0       _guard_xfg_dispatch_icall_nop 000000014004c8f0 f   LIBCMT:guard_xfg_dispatch.obj
 0002:00000000       __imp_GetCurrentThreadId   000000014004d000     kernel32:KERNEL32.dll
 0002:00000008       __imp_HeapSize             000000014004d008     kernel32:KERNEL32.dll
 0002:00000010       __imp_GetFileSizeEx        000000014004d010     kernel32:KERNEL32.dll
 0002:00000018       __imp_CreateFileW          000000014004d018     kernel32:KERNEL32.dll
 0002:00000020       __imp_GetProcessHeap       000000014004d020     kernel32:KERNEL32.dll
 0002:00000028       __imp_GetStringTypeW       000000014004d028     kernel32:KERNEL32.dll
 0002:00000030       __imp_SetStdHandle         000000014004d030     kernel32:KERNEL32.dll
 0002:00000038       __imp_FreeEnvironmentStringsW 000000014004d038     kernel32:KERNEL32.dll
 0002:00000040       __imp_GetEnvironmentStringsW 000000014004d040     kernel32:KERNEL32.dll
 0002:00000048       __imp_WideCharToMultiByte  000000014004d048     kernel32:KERNEL32.dll
 0002:00000050       __imp_MultiByteToWideChar  000000014004d050     kernel32:KERNEL32.dll
 0002:00000058       __imp_GetCommandLineW      000000014004d058     kernel32:KERNEL32.dll
 0002:00000060       __imp_GetCommandLineA      000000014004d060     kernel32:KERNEL32.dll
 0002:00000068       __imp_GetCPInfo            000000014004d068     kernel32:KERNEL32.dll
 0002:00000070       __imp_GetOEMCP             000000014004d070     kernel32:KERNEL32.dll
 0002:00000078       __imp_GetACP               000000014004d078     kernel32:KERNEL32.dll
 0002:00000080       __imp_IsValidCodePage      000000014004d080     kernel32:KERNEL32.dll
 0002:00000088       __imp_FindNextFileW        000000014004d088     kernel32:KERNEL32.dll
 0002:00000090       __imp_FindFirstFileExW     000000014004d090     kernel32:KERNEL32.dll
 0002:00000098       __imp_FindClose            000000014004d098     kernel32:KERNEL32.dll
 0002:000000a0       __imp_OutputDebugStringW   000000014004d0a0     kernel32:KERNEL32.dll
 0002:000000a8       __imp_SetFilePointerEx     000000014004d0a8     kernel32:KERNEL32.dll
 0002:000000b0       __imp_ReadConsoleW         000000014004d0b0     kernel32:KERNEL32.dll
 0002:000000b8       __imp_GetConsoleMode       000000014004d0b8     kernel32:KERNEL32.dll
 0002:000000c0       __imp_GetConsoleOutputCP   000000014004d0c0     kernel32:KERNEL32.dll
 0002:000000c8       __imp_FlushFileBuffers     000000014004d0c8     kernel32:KERNEL32.dll
 0002:000000d0       __imp_CloseHandle          000000014004d0d0     kernel32:KERNEL32.dll
 0002:000000d8       __imp_LCMapStringW         000000014004d0d8     kernel32:KERNEL32.dll
 0002:000000e0       __imp_FlsFree              000000014004d0e0     kernel32:KERNEL32.dll
 0002:000000e8       __imp_FlsSetValue          000000014004d0e8     kernel32:KERNEL32.dll
 0002:000000f0       __imp_FlsGetValue          000000014004d0f0     kernel32:KERNEL32.dll
 0002:000000f8       __imp_FlsAlloc             000000014004d0f8     kernel32:KERNEL32.dll
 0002:00000100       __imp_HeapReAlloc          000000014004d100     kernel32:KERNEL32.dll
 0002:00000108       __imp_HeapAlloc            000000014004d108     kernel32:KERNEL32.dll
 0002:00000110       __imp_HeapFree             000000014004d110     kernel32:KERNEL32.dll
 0002:00000118       __imp_ExitProcess          000000014004d118     kernel32:KERNEL32.dll
 0002:00000120       __imp_WriteFile            000000014004d120     kernel32:KERNEL32.dll
 0002:00000128       __imp_WriteConsoleW        000000014004d128     kernel32:KERNEL32.dll
 0002:00000130       __imp_GetModuleHandleExW   000000014004d130     kernel32:KERNEL32.dll
 0002:00000138       __imp_GetModuleFileNameW   000000014004d138     kernel32:KERNEL32.dll
 0002:00000140       __imp_GetFileType          000000014004d140     kernel32:KERNEL32.dll
 0002:00000148       __imp_GetStdHandle         000000014004d148     kernel32:KERNEL32.dll
 0002:00000150       __imp_ReadFile             000000014004d150     kernel32:KERNEL32.dll
 0002:00000158       __imp_RtlUnwind            000000014004d158     kernel32:KERNEL32.dll
 0002:00000160       __imp_RtlPcToFileHeader    000000014004d160     kernel32:KERNEL32.dll
 0002:00000168       __imp_RaiseException       000000014004d168     kernel32:KERNEL32.dll
 0002:00000170       __imp_EncodePointer        000000014004d170     kernel32:KERNEL32.dll
 0002:00000178       __imp_LoadLibraryExW       000000014004d178     kernel32:KERNEL32.dll
 0002:00000180       __imp_GetProcAddress       000000014004d180     kernel32:KERNEL32.dll
 0002:00000188       __imp_FreeLibrary          000000014004d188     kernel32:KERNEL32.dll
 0002:00000190       __imp_TlsFree              000000014004d190     kernel32:KERNEL32.dll
 0002:00000198       __imp_TlsSetValue          000000014004d198     kernel32:KERNEL32.dll
 0002:000001a0       __imp_TlsGetValue          000000014004d1a0     kernel32:KERNEL32.dll
 0002:000001a8       __imp_TlsAlloc             000000014004d1a8     kernel32:KERNEL32.dll
 0002:000001b0       __imp_InitializeCriticalSectionAndSpinCount 000000014004d1b0     kernel32:KERNEL32.dll
 0002:000001b8       __imp_DeleteCriticalSection 000000014004d1b8     kernel32:KERNEL32.dll
 0002:000001c0       __imp_LeaveCriticalSection 000000014004d1c0     kernel32:KERNEL32.dll
 0002:000001c8       __imp_EnterCriticalSection 000000014004d1c8     kernel32:KERNEL32.dll
 0002:000001d0       __imp_DebugBreak           000000014004d1d0     kernel32:KERNEL32.dll
 0002:000001d8       __imp_OutputDebugStringA   000000014004d1d8     kernel32:KERNEL32.dll
 0002:000001e0       __imp_RtlCaptureContext    000000014004d1e0     kernel32:KERNEL32.dll
 0002:000001e8       __imp_RtlLookupFunctionEntry 000000014004d1e8     kernel32:KERNEL32.dll
 0002:000001f0       __imp_RtlVirtualUnwind     000000014004d1f0     kernel32:KERNEL32.dll
 0002:000001f8       __imp_UnhandledExceptionFilter 000000014004d1f8     kernel32:KERNEL32.dll
 0002:00000200       __imp_SetUnhandledExceptionFilter 000000014004d200     kernel32:KERNEL32.dll
 0002:00000208       __imp_GetCurrentProcess    000000014004d208     kernel32:KERNEL32.dll
 0002:00000210       __imp_TerminateProcess     000000014004d210     kernel32:KERNEL32.dll
 0002:00000218       __imp_IsProcessorFeaturePresent 000000014004d218     kernel32:KERNEL32.dll
 0002:00000220       __imp_QueryPerformanceCounter 000000014004d220     kernel32:KERNEL32.dll
 0002:00000228       __imp_GetCurrentProcessId  000000014004d228     kernel32:KERNEL32.dll
 0002:00000230       __imp_SetEndOfFile         000000014004d230     kernel32:KERNEL32.dll
 0002:00000238       __imp_GetSystemTimeAsFileTime 000000014004d238     kernel32:KERNEL32.dll
 0002:00000240       __imp_InitializeSListHead  000000014004d240     kernel32:KERNEL32.dll
 0002:00000248       __imp_IsDebuggerPresent    000000014004d248     kernel32:KERNEL32.dll
 0002:00000250       __imp_GetStartupInfoW      000000014004d250     kernel32:KERNEL32.dll
 0002:00000258       __imp_GetModuleHandleW     000000014004d258     kernel32:KERNEL32.dll
 0002:00000260       __imp_SetLastError         000000014004d260     kernel32:KERNEL32.dll
 0002:00000268       __imp_RtlUnwindEx          000000014004d268     kernel32:KERNEL32.dll
 0002:00000270       __imp_GetLastError         000000014004d270     kernel32:KERNEL32.dll
 0002:00000278       \177KERNEL32_NULL_THUNK_DATA 000000014004d278     kernel32:KERNEL32.dll
 0002:00000280       __imp_glBlendFunc          000000014004d280     OpenGL32:OPENGL32.dll
 0002:00000288       __imp_glTexParameteri      000000014004d288     OpenGL32:OPENGL32.dll
 0002:00000290       __imp_glTexImage2D         000000014004d290     OpenGL32:OPENGL32.dll
 0002:00000298       __imp_glGetIntegerv        000000014004d298     OpenGL32:OPENGL32.dll
 0002:000002a0       __imp_glGenTextures        000000014004d2a0     OpenGL32:OPENGL32.dll
 0002:000002a8       __imp_glEnable             000000014004d2a8     OpenGL32:OPENGL32.dll
 0002:000002b0       __imp_glDrawArrays         000000014004d2b0     OpenGL32:OPENGL32.dll
 0002:000002b8       __imp_glDeleteTextures     000000014004d2b8     OpenGL32:OPENGL32.dll
 0002:000002c0       __imp_glClearColor         000000014004d2c0     OpenGL32:OPENGL32.dll
 0002:000002c8       __imp_glClear              000000014004d2c8     OpenGL32:OPENGL32.dll
 0002:000002d0       __imp_glBindTexture        000000014004d2d0     OpenGL32:OPENGL32.dll
 0002:000002d8       \177OPENGL32_NULL_THUNK_DATA 000000014004d2d8     OpenGL32:OPENGL32.dll
 0002:000002e0       __imp_SDL_GetError         000000014004d2e0     SDL2:SDL2.dll
 0002:000002e8       __imp_SDL_LoadFile         000000014004d2e8     SDL2:SDL2.dll
 0002:000002f0       __imp_SDL_CreateWindow     000000014004d2f0     SDL2:SDL2.dll
 0002:000002f8       __imp_SDL_DestroyWindow    000000014004d2f8     SDL2:SDL2.dll
 0002:00000300       __imp_SDL_GL_SetAttribute  000000014004d300     SDL2:SDL2.dll
 0002:00000308       __imp_SDL_GL_CreateContext 000000014004d308     SDL2:SDL2.dll
 0002:00000310       __imp_SDL_GL_SetSwapInterval 000000014004d310     SDL2:SDL2.dll
 0002:00000318       __imp_SDL_GL_SwapWindow    000000014004d318     SDL2:SDL2.dll
 0002:00000320       __imp_SDL_GL_DeleteContext 000000014004d320     SDL2:SDL2.dll
 0002:00000328       __imp_SDL_GetMouseState    000000014004d328     SDL2:SDL2.dll
 0002:00000330       __imp_SDL_PollEvent        000000014004d330     SDL2:SDL2.dll
 0002:00000338       __imp_SDL_GetTicks         000000014004d338     SDL2:SDL2.dll
 0002:00000340       __imp_SDL_Delay            000000014004d340     SDL2:SDL2.dll
 0002:00000348       __imp_SDL_Init             000000014004d348     SDL2:SDL2.dll
 0002:00000350       __imp_SDL_Quit             000000014004d350     SDL2:SDL2.dll
 0002:00000358       __imp_SDL_free             000000014004d358     SDL2:SDL2.dll
 0002:00000360       \177SDL2_NULL_THUNK_DATA   000000014004d360     SDL2:SDL2.dll
 0002:00000368       __imp___glewIsProgram      000000014004d368     glew32:glew32.dll
 0002:00000370       __imp___glewGetUniformLocation 000000014004d370     glew32:glew32.dll
 0002:00000378       __imp___glewGetShaderiv    000000014004d378     glew32:glew32.dll
 0002:00000380       __imp___glewGetShaderInfoLog 000000014004d380     glew32:glew32.dll
 0002:00000388       __imp___glewLinkProgram    000000014004d388     glew32:glew32.dll
 0002:00000390       __imp___glewGetProgramInfoLog 000000014004d390     glew32:glew32.dll
 0002:00000398       __imp___glewEnableVertexAttribArray 000000014004d398     glew32:glew32.dll
 0002:000003a0       __imp___glewDetachShader   000000014004d3a0     glew32:glew32.dll
 0002:000003a8       __imp___glewDeleteShader   000000014004d3a8     glew32:glew32.dll
 0002:000003b0       __imp___glewDeleteProgram  000000014004d3b0     glew32:glew32.dll
 0002:000003b8       __imp___glewCreateShader   000000014004d3b8     glew32:glew32.dll
 0002:000003c0       __imp___glewCreateProgram  000000014004d3c0     glew32:glew32.dll
 0002:000003c8       __imp___glewCompileShader  000000014004d3c8     glew32:glew32.dll
 0002:000003d0       __imp___glewAttachShader   000000014004d3d0     glew32:glew32.dll
 0002:000003d8       __imp___glewGenBuffers     000000014004d3d8     glew32:glew32.dll
 0002:000003e0       __imp___glewDeleteBuffers  000000014004d3e0     glew32:glew32.dll
 0002:000003e8       __imp___glewBufferSubData  000000014004d3e8     glew32:glew32.dll
 0002:000003f0       __imp___glewBufferData     000000014004d3f0     glew32:glew32.dll
 0002:000003f8       __imp___glewBindBuffer     000000014004d3f8     glew32:glew32.dll
 0002:00000400       __imp___glewActiveTexture  000000014004d400     glew32:glew32.dll
 0002:00000408       __imp_glewGetErrorString   000000014004d408     glew32:glew32.dll
 0002:00000410       __imp_glewInit             000000014004d410     glew32:glew32.dll
 0002:00000418       __imp___glewIsShader       000000014004d418     glew32:glew32.dll
 0002:00000420       __imp___glewShaderSource   000000014004d420     glew32:glew32.dll
 0002:00000428       __imp___glewUniform1f      000000014004d428     glew32:glew32.dll
 0002:00000430       __imp___glewUniform1i      000000014004d430     glew32:glew32.dll
 0002:00000438       __imp___glewUniform1iv     000000014004d438     glew32:glew32.dll
 0002:00000440       __imp___glewUniform3f      000000014004d440     glew32:glew32.dll
 0002:00000448       __imp___glewUniform4f      000000014004d448     glew32:glew32.dll
 0002:00000450       __imp___glewUniformMatrix4fv 000000014004d450     glew32:glew32.dll
 0002:00000458       __imp___glewUseProgram     000000014004d458     glew32:glew32.dll
 0002:00000460       __imp___glewVertexAttribPointer 000000014004d460     glew32:glew32.dll
 0002:00000468       __imp___glewGenerateMipmap 000000014004d468     glew32:glew32.dll
 0002:00000470       __imp___glewBindVertexArray 000000014004d470     glew32:glew32.dll
 0002:00000478       __imp___glewDeleteVertexArrays 000000014004d478     glew32:glew32.dll
 0002:00000480       __imp___glewGenVertexArrays 000000014004d480     glew32:glew32.dll
 0002:00000488       __imp_glewExperimental     000000014004d488     glew32:glew32.dll
 0002:00000490       __imp___glewGetProgramiv   000000014004d490     glew32:glew32.dll
 0002:00000498       \177glew32_NULL_THUNK_DATA 000000014004d498     glew32:glew32.dll
 0002:000004a0       __guard_check_icall_fptr   000000014004d4a0     LIBCMT:guard_support.obj
 0002:000004a8       __guard_xfg_check_icall_fptr 000000014004d4a8     LIBCMT:guard_support.obj
 0002:000004b0       __guard_dispatch_icall_fptr 000000014004d4b0     LIBCMT:guard_support.obj
 0002:000004b8       __guard_xfg_dispatch_icall_fptr 000000014004d4b8     LIBCMT:guard_support.obj
 0002:000004c0       __guard_xfg_table_dispatch_icall_fptr 000000014004d4c0     LIBCMT:guard_support.obj
 0002:000004c8       __castguard_check_failure_os_handled_fptr 000000014004d4c8     LIBCMT:guard_support.obj
 0002:000004d0       __guard_memcpy_fptr        000000014004d4d0     libvcruntime:softmemtag.obj
 0002:000004d8       __xc_a                     000000014004d4d8     LIBCMT:initializers.obj
 0002:000004e8       __xc_z                     000000014004d4e8     LIBCMT:initializers.obj
 0002:000004f0       __xi_a                     000000014004d4f0     LIBCMT:initializers.obj
 0002:00000508       __acrt_stdio_initializer   000000014004d508     libucrt:stdio_initializer.obj
 0002:00000510       __acrt_tran_fma3_initializer 000000014004d510     libucrt:fma3_initializer.obj
 0002:00000518       __acrt_multibyte_initializer 000000014004d518     libucrt:multibyte_initializer.obj
 0002:00000520       __acrt_fmode_initializer   000000014004d520     libucrt:fmode_initializer.obj
 0002:00000528       __xi_z                     000000014004d528     LIBCMT:initializers.obj
 0002:00000530       __xl_a                     000000014004d530     LIBCMT:tlssup.obj
 0002:00000538       __xl_z                     000000014004d538     LIBCMT:tlssup.obj
 0002:00000540       __xp_a                     000000014004d540     LIBCMT:initializers.obj
 0002:00000548       __acrt_locale_terminator   000000014004d548     libucrt:locale_initializer.obj
 0002:00000550       __dcrt_console_output_terminator 000000014004d550     libucrt:console_output_initializer.obj
 0002:00000558       __acrt_stdio_terminator    000000014004d558     libucrt:stdio_initializer.obj
 0002:00000560       __xp_z                     000000014004d560     LIBCMT:initializers.obj
 0002:00000568       __xt_a                     000000014004d568     LIBCMT:initializers.obj
 0002:00000570       __xt_z                     000000014004d570     LIBCMT:initializers.obj
 0002:00002890       ??_C@_1FC@HDKDGLNF@?$AAX?$AA?3?$AA?2?$AAe?$AAx?$AAt?$AAe?$AAr?$AAn?$AAa?$AAl?$AA?2?$AAg?$AAl?$AAm@ 000000014004f890     main_win.obj
 0002:000028e8       ??_C@_1DK@BGNCJAPL@?$AAi?$AA?5?$AA?$DO?$AA?$DN?$AA?5?$AA0?$AA?5?$AA?$CG?$AA?$CG?$AA?5?$AAi?$AA?5?$AA?$DM?$AA?5?$AAt@ 000000014004f8e8     main_win.obj
 0002:00002930       ??_C@_1FC@HDLICFK@?$AAX?$AA?3?$AA?2?$AAe?$AAx?$AAt?$AAe?$AAr?$AAn?$AAa?$AAl?$AA?2?$AAg?$AAl?$AAm@ 000000014004f930     main_win.obj
 0002:00002990       ??_C@_1FG@NAKKDLIE@?$AAX?$AA?3?$AA?2?$AAe?$AAx?$AAt?$AAe?$AAr?$AAn?$AAa?$AAl?$AA?2?$AAg?$AAl?$AAm@ 000000014004f990     main_win.obj
 0002:000029e8       ??_C@_1CG@KOFHLCJL@?$AAi?$AA?5?$AA?$DM?$AA?5?$AAt?$AAh?$AAi?$AAs?$AA?9?$AA?$DO?$AAl?$AAe?$AAn?$AAg?$AAt@ 000000014004f9e8     main_win.obj
 0002:00002a10       ??_C@_1FG@FJMLCKHO@?$AAX?$AA?3?$AA?2?$AAe?$AAx?$AAt?$AAe?$AAr?$AAn?$AAa?$AAl?$AA?2?$AAg?$AAl?$AAm@ 000000014004fa10     main_win.obj
 0002:00002a70       ??_C@_1FM@KOLGJGKG@?$AAX?$AA?3?$AA?2?$AAe?$AAx?$AAt?$AAe?$AAr?$AAn?$AAa?$AAl?$AA?2?$AAg?$AAl?$AAm@ 000000014004fa70     main_win.obj
 0002:00002ad0       ??_C@_1II@JJEBDBC@?$AAa?$AAb?$AAs?$AA?$CI?$AAa?$AAs?$AAp?$AAe?$AAc?$AAt?$AA?5?$AA?9?$AA?5?$AAs?$AAt@ 000000014004fad0     main_win.obj
 0002:00002b58       __real@00000000            000000014004fb58     main_win.obj
 0002:00002b5c       __real@34000000            000000014004fb5c     main_win.obj
 0002:00002b60       __real@3c23d70a            000000014004fb60     main_win.obj
 0002:00002b64       __real@3c8efa35            000000014004fb64     main_win.obj
 0002:00002b68       __real@3f000000            000000014004fb68     main_win.obj
 0002:00002b6c       __real@3f800000            000000014004fb6c     main_win.obj
 0002:00002b70       __real@40000000            000000014004fb70     main_win.obj
 0002:00002b74       __real@40400000            000000014004fb74     main_win.obj
 0002:00002b78       __real@40800000            000000014004fb78     main_win.obj
 0002:00002b80       __real@408f400000000000    000000014004fb80     main_win.obj
 0002:00002b88       __real@40c00000            000000014004fb88     main_win.obj
 0002:00002b8c       __real@40e00000            000000014004fb8c     main_win.obj
 0002:00002b90       __real@41000000            000000014004fb90     main_win.obj
 0002:00002b94       __real@41100000            000000014004fb94     main_win.obj
 0002:00002b98       __real@41300000            000000014004fb98     main_win.obj
 0002:00002b9c       __real@41400000            000000014004fb9c     main_win.obj
 0002:00002ba0       __real@41500000            000000014004fba0     main_win.obj
 0002:00002ba4       __real@41700000            000000014004fba4     main_win.obj
 0002:00002ba8       __real@41a00000            000000014004fba8     main_win.obj
 0002:00002bac       __real@42000000            000000014004fbac     main_win.obj
 0002:00002bb0       __real@42800000            000000014004fbb0     main_win.obj
 0002:00002bb4       __real@42b20000            000000014004fbb4     main_win.obj
 0002:00002bb8       __real@42c80000            000000014004fbb8     main_win.obj
 0002:00002bbc       __real@43340000            000000014004fbbc     main_win.obj
 0002:00002bc0       __real@437f0000            000000014004fbc0     main_win.obj
 0002:00002bc4       __real@447a0000            000000014004fbc4     main_win.obj
 0002:00002bc8       __real@477fff00            000000014004fbc8     main_win.obj
 0002:00002bcc       __real@bc23d70a            000000014004fbcc     main_win.obj
 0002:00002bd0       __real@bf800000            000000014004fbd0     main_win.obj
 0002:00002bd4       __real@c0000000            000000014004fbd4     main_win.obj
 0002:00002bd8       __real@c2b20000            000000014004fbd8     main_win.obj
 0002:00002be0       __xmm@00000200000002000000020000000200 000000014004fbe0     main_win.obj
 0002:00002bf0       __xmm@00080008000800080008000800080008 000000014004fbf0     main_win.obj
 0002:00002c00       __xmm@00ff00ff00ff00ff00ff00ff00ff00ff 000000014004fc00     main_win.obj
 0002:00002c10       __xmm@01010000010100000101000001010000 000000014004fc10     main_win.obj
 0002:00002c20       __xmm@08a914e808a914e808a914e808a914e8 000000014004fc20     main_win.obj
 0002:00002c30       __xmm@11c8e09e11c8e09e11c8e09e11c8e09e 000000014004fc30     main_win.obj
 0002:00002c40       __xmm@11c8f9c311c8f9c311c8f9c311c8f9c3 000000014004fc40     main_win.obj
 0002:00002c50       __xmm@12d0046b12d0046b12d0046b12d0046b 000000014004fc50     main_win.obj
 0002:00002c60       __xmm@166f166f166f166f166f166f166f166f 000000014004fc60     main_win.obj
 0002:00002c70       __xmm@1c5a1c5a1c5a1c5a1c5a1c5a1c5a1c5a 000000014004fc70     main_win.obj
 0002:00002c80       __xmm@7fffffffffffffff7fffffffffffffff 000000014004fc80     main_win.obj
 0002:00002c90       __xmm@80000000800000008000000080000000 000000014004fc90     main_win.obj
 0002:00002ca0       __xmm@80808080808080808080808080808080 000000014004fca0     main_win.obj
 0002:00002cb0       __xmm@e09ee565e09ee565e09ee565e09ee565 000000014004fcb0     main_win.obj
 0002:00002cc0       __xmm@e9cf12d0e9cf12d0e9cf12d0e9cf12d0 000000014004fcc0     main_win.obj
 0002:00002cd0       __xmm@eb1a08a9eb1a08a9eb1a08a9eb1a08a9 000000014004fcd0     main_win.obj
 0002:00002ce0       __xmm@f493f493f493f493f493f493f493f493 000000014004fce0     main_win.obj
 0002:00002cf0       __xmm@f9c31a9df9c31a9df9c31a9df9c31a9d 000000014004fcf0     main_win.obj
 0002:00002d00       __xmm@fa7efa7efa7efa7efa7efa7efa7efa7e 000000014004fd00     main_win.obj
 0002:00002d20       __xmm@ffffffffffffffffffffffffffffffff 000000014004fd20     LIBCMT:utility.obj
 0002:00002d30       _pDestructExceptionObject  000000014004fd30     libvcruntime:ehhelpers.obj
 0002:00003450       ??_C@_08EHJDFFNH@__based?$CI@ 0000000140050450     libvcruntime:undname.obj
 0002:00003460       ??_C@_07KOLFKCDI@__cdecl@  0000000140050460     libvcruntime:undname.obj
 0002:00003468       ??_C@_08GHMPAG@__pascal@   0000000140050468     libvcruntime:undname.obj
 0002:00003478       ??_C@_09IFJBGAPI@__stdcall@ 0000000140050478     libvcruntime:undname.obj
 0002:00003488       ??_C@_0L@NPHFGOKO@__thiscall@ 0000000140050488     libvcruntime:undname.obj
 0002:00003498       ??_C@_0L@JMKHOMEK@__fastcall@ 0000000140050498     libvcruntime:undname.obj
 0002:000034a8       ??_C@_0N@BCKKPABJ@__vectorcall@ 00000001400504a8     libvcruntime:undname.obj
 0002:000034b8       ??_C@_09HIJEGCPM@__clrcall@ 00000001400504b8     libvcruntime:undname.obj
 0002:000034c4       ??_C@_06GHPCKEAG@__eabi@   00000001400504c4     libvcruntime:undname.obj
 0002:000034d0       ??_C@_09IOPIDJLG@__swift_1@ 00000001400504d0     libvcruntime:undname.obj
 0002:000034e0       ??_C@_09KFNFGKHF@__swift_2@ 00000001400504e0     libvcruntime:undname.obj
 0002:000034f0       ??_C@_09LMMOFLDE@__swift_3@ 00000001400504f0     libvcruntime:undname.obj
 0002:00003500       ??_C@_07JOMMBBKO@__ptr64@  0000000140050500     libvcruntime:undname.obj
 0002:00003508       ??_C@_0L@PILCLIHE@__restrict@ 0000000140050508     libvcruntime:undname.obj
 0002:00003518       ??_C@_0M@GFIIJFMG@__unaligned@ 0000000140050518     libvcruntime:undname.obj
 0002:00003528       ??_C@_09DHDLOLLB@restrict?$CI@ 0000000140050528     libvcruntime:undname.obj
 0002:00003532       ??_C@_00CNPNBAHC@@         0000000140050532     libvcruntime:undname.obj
 0002:00003534       ??_C@_04NIHEBCM@?5new@     0000000140050534     libvcruntime:undname.obj
 0002:00003540       ??_C@_07FPCDHGMM@?5delete@ 0000000140050540     libvcruntime:undname.obj
 0002:00003548       ??_C@_01NEMOKFLO@?$DN@     0000000140050548     libvcruntime:undname.obj
 0002:0000354c       ??_C@_02GPIOPFAK@?$DO?$DO@ 000000014005054c     libvcruntime:undname.obj
 0002:00003550       ??_C@_02FODMEDOG@?$DM?$DM@ 0000000140050550     libvcruntime:undname.obj
 0002:00003554       ??_C@_01DCLJPIOD@?$CB@     0000000140050554     libvcruntime:undname.obj
 0002:00003558       ??_C@_02EGOFBIJA@?$DN?$DN@ 0000000140050558     libvcruntime:undname.obj
 0002:0000355c       ??_C@_02FDNJECIE@?$CB?$DN@ 000000014005055c     libvcruntime:undname.obj
 0002:00003560       ??_C@_02GPECMEKF@?$FL?$FN@ 0000000140050560     libvcruntime:undname.obj
 0002:00003568       ??_C@_08LHJFAFGD@operator@ 0000000140050568     libvcruntime:undname.obj
 0002:00003574       ??_C@_02HBOOOICD@?9?$DO@   0000000140050574     libvcruntime:undname.obj
 0002:00003578       ??_C@_01NBENCBCI@?$CK@     0000000140050578     libvcruntime:undname.obj
 0002:0000357c       ??_C@_02ECNGHCIF@?$CL?$CL@ 000000014005057c     libvcruntime:undname.obj
 0002:00003580       ??_C@_02BAABKJLB@?9?9@     0000000140050580     libvcruntime:undname.obj
 0002:00003584       ??_C@_01JOAMLHOP@?9@       0000000140050584     libvcruntime:undname.obj
 0002:00003588       ??_C@_01MIFGBAGJ@?$CL@     0000000140050588     libvcruntime:undname.obj
 0002:0000358c       ??_C@_01HNPIGOCE@?$CG@     000000014005058c     libvcruntime:undname.obj
 0002:00003590       ??_C@_03MNHNFDLC@?9?$DO?$CK@ 0000000140050590     libvcruntime:undname.obj
 0002:00003594       ??_C@_01KMDKNFGN@?1@       0000000140050594     libvcruntime:undname.obj
 0002:00003598       ??_C@_01FGNFDNOH@?$CF@     0000000140050598     libvcruntime:undname.obj
 0002:0000359c       ??_C@_01MNNFJEPP@?$DM@     000000014005059c     libvcruntime:undname.obj
 0002:000035a0       ??_C@_02EHCHHCKH@?$DM?$DN@ 00000001400505a0     libvcruntime:undname.obj
 0002:000035a4       ??_C@_01PPODPGHN@?$DO@     00000001400505a4     libvcruntime:undname.obj
 0002:000035a8       ??_C@_02EEKDKGMJ@?$DO?$DN@ 00000001400505a8     libvcruntime:undname.obj
 0002:000035ac       ??_C@_01IHBHIGKO@?0@       00000001400505ac     libvcruntime:undname.obj
 0002:000035b0       ??_C@_02HCKGKOFO@?$CI?$CJ@ 00000001400505b0     libvcruntime:undname.obj
 0002:000035b4       ??_C@_01PJKLJHI@?$HO@      00000001400505b4     libvcruntime:undname.obj
 0002:000035b8       ??_C@_01JKBOJNNK@?$FO@     00000001400505b8     libvcruntime:undname.obj
 0002:000035bc       ??_C@_01DNKMNLPK@?$HM@     00000001400505bc     libvcruntime:undname.obj
 0002:000035c0       ??_C@_02PPKAJPJL@?$CG?$CG@ 00000001400505c0     libvcruntime:undname.obj
 0002:000035c4       ??_C@_02NONPIBCD@?$HM?$HM@ 00000001400505c4     libvcruntime:undname.obj
 0002:000035c8       ??_C@_02FPIMKNGF@?$CK?$DN@ 00000001400505c8     libvcruntime:undname.obj
 0002:000035cc       ??_C@_02FOEOMHFC@?$CL?$DN@ 00000001400505cc     libvcruntime:undname.obj
 0002:000035d0       ??_C@_02FKMDLLOA@?9?$DN@   00000001400505d0     libvcruntime:undname.obj
 0002:000035d4       ??_C@_02FJEHGPIO@?1?$DN@   00000001400505d4     libvcruntime:undname.obj
 0002:000035d8       ??_C@_02FENAOKFI@?$CF?$DN@ 00000001400505d8     libvcruntime:undname.obj
 0002:000035dc       ??_C@_03IKFCCPFF@?$DO?$DO?$DN@ 00000001400505dc     libvcruntime:undname.obj
 0002:000035e0       ??_C@_03CDNPDDLA@?$DM?$DM?$DN@ 00000001400505e0     libvcruntime:undname.obj
 0002:000035e4       ??_C@_02FGJGFEAB@?$CG?$DN@ 00000001400505e4     libvcruntime:undname.obj
 0002:000035e8       ??_C@_02DHLNPPGH@?$HM?$DN@ 00000001400505e8     libvcruntime:undname.obj
 0002:000035ec       ??_C@_02MHEGNOJ@?$FO?$DN@  00000001400505ec     libvcruntime:undname.obj
 0002:000035f0       ??_C@_09IFPLHPGF@?$GAvftable?8@ 00000001400505f0     libvcruntime:undname.obj
 0002:00003600       ??_C@_09BLBHBJP@?$GAvbtable?8@ 0000000140050600     libvcruntime:undname.obj
 0002:00003610       ??_C@_07FEEIOKP@?$GAvcall?8@ 0000000140050610     libvcruntime:undname.obj
 0002:00003618       ??_C@_08LLFFHHDJ@?$GAtypeof?8@ 0000000140050618     libvcruntime:undname.obj
 0002:00003628       ??_C@_0BF@KDPPACIK@?$GAlocal?5static?5guard?8@ 0000000140050628     libvcruntime:undname.obj
 0002:00003640       ??_C@_08OBABFOLI@?$GAstring?8@ 0000000140050640     libvcruntime:undname.obj
 0002:00003650       ??_C@_0BD@JDLKDPAB@?$GAvbase?5destructor?8@ 0000000140050650     libvcruntime:undname.obj
 0002:00003668       ??_C@_0BN@DEGPLNFK@?$GAvector?5deleting?5destructor?8@ 0000000140050668     libvcruntime:undname.obj
 0002:00003688       ??_C@_0BO@OBMKPJIG@?$GAdefault?5constructor?5closure?8@ 0000000140050688     libvcruntime:undname.obj
 0002:000036a8       ??_C@_0BN@IMDCHIKM@?$GAscalar?5deleting?5destructor?8@ 00000001400506a8     libvcruntime:undname.obj
 0002:000036c8       ??_C@_0BO@PFGOCPJJ@?$GAvector?5constructor?5iterator?8@ 00000001400506c8     libvcruntime:undname.obj
 0002:000036e8       ??_C@_0BN@LFPFMEDL@?$GAvector?5destructor?5iterator?8@ 00000001400506e8     libvcruntime:undname.obj
 0002:00003708       ??_C@_0CE@IKBNEHA@?$GAvector?5vbase?5constructor?5itera@ 0000000140050708     libvcruntime:undname.obj
 0002:00003730       ??_C@_0BL@NILFHHPC@?$GAvirtual?5displacement?5map?8@ 0000000140050730     libvcruntime:undname.obj
 0002:00003750       ??_C@_0CB@JONCMFFK@?$GAeh?5vector?5constructor?5iterator@ 0000000140050750     libvcruntime:undname.obj
 0002:00003778       ??_C@_0CA@GCEOPDGL@?$GAeh?5vector?5destructor?5iterator?8@ 0000000140050778     libvcruntime:undname.obj
 0002:00003798       ??_C@_0CH@OOJPLCPH@?$GAeh?5vector?5vbase?5constructor?5it@ 0000000140050798     libvcruntime:undname.obj
 0002:000037c0       ??_C@_0BL@LLKPOHJI@?$GAcopy?5constructor?5closure?8@ 00000001400507c0     libvcruntime:undname.obj
 0002:000037e0       ??_C@_0BA@KBCDOMBN@?$GAudt?5returning?8@ 00000001400507e0     libvcruntime:undname.obj
 0002:000037f0       ??_C@_03KLGMFNMG@?$GAEH@   00000001400507f0     libvcruntime:undname.obj
 0002:000037f4       ??_C@_05KHLCHHI@?$GARTTI@  00000001400507f4     libvcruntime:undname.obj
 0002:00003800       ??_C@_0BA@KKLDJDLB@?$GAlocal?5vftable?8@ 0000000140050800     libvcruntime:undname.obj
 0002:00003810       ??_C@_0CE@IIHCMGGL@?$GAlocal?5vftable?5constructor?5clos@ 0000000140050810     libvcruntime:undname.obj
 0002:00003834       ??_C@_06FHBGPFGH@?5new?$FL?$FN@ 0000000140050834     libvcruntime:undname.obj
 0002:00003840       ??_C@_09LBNFPBCA@?5delete?$FL?$FN@ 0000000140050840     libvcruntime:undname.obj
 0002:00003850       ??_C@_0P@HJKNJFNN@?$GAomni?5callsig?8@ 0000000140050850     libvcruntime:undname.obj
 0002:00003860       ??_C@_0BL@CNOONJFP@?$GAplacement?5delete?5closure?8@ 0000000140050860     libvcruntime:undname.obj
 0002:00003880       ??_C@_0BN@CKNJLHMB@?$GAplacement?5delete?$FL?$FN?5closure?8@ 0000000140050880     libvcruntime:undname.obj
 0002:000038a0       ??_C@_0CG@CFDHKGGD@?$GAmanaged?5vector?5constructor?5ite@ 00000001400508a0     libvcruntime:undname.obj
 0002:000038c8       ??_C@_0CF@IMGKMJNO@?$GAmanaged?5vector?5destructor?5iter@ 00000001400508c8     libvcruntime:undname.obj
 0002:000038f0       ??_C@_0CG@HLDDJMAG@?$GAeh?5vector?5copy?5constructor?5ite@ 00000001400508f0     libvcruntime:undname.obj
 0002:00003918       ??_C@_0CM@FCBBDIGB@?$GAeh?5vector?5vbase?5copy?5construct@ 0000000140050918     libvcruntime:undname.obj
 0002:00003948       ??_C@_0BL@CLIPGLGB@?$GAdynamic?5initializer?5for?5?8@ 0000000140050948     libvcruntime:undname.obj
 0002:00003968       ??_C@_0CB@PDBIFEP@?$GAdynamic?5atexit?5destructor?5for?5@ 0000000140050968     libvcruntime:undname.obj
 0002:00003990       ??_C@_0CD@CGAJBKEJ@?$GAvector?5copy?5constructor?5iterat@ 0000000140050990     libvcruntime:undname.obj
 0002:000039b8       ??_C@_0CJ@GJELGAMM@?$GAvector?5vbase?5copy?5constructor?5@ 00000001400509b8     libvcruntime:undname.obj
 0002:000039e8       ??_C@_0CL@FGIJHLCE@?$GAmanaged?5vector?5copy?5constructo@ 00000001400509e8     libvcruntime:undname.obj
 0002:00003a18       ??_C@_0BM@PMGGMLDN@?$GAlocal?5static?5thread?5guard?8@ 0000000140050a18     libvcruntime:undname.obj
 0002:00003a38       ??_C@_0N@BDNMDMOL@operator?5?$CC?$CC?5@ 0000000140050a38     libvcruntime:undname.obj
 0002:00003a48       ??_C@_0BC@GGEBGALA@operator?5co_await@ 0000000140050a48     libvcruntime:undname.obj
 0002:00003a60       ??_C@_0M@GAAIMMOH@operator?$DM?$DN?$DO@ 0000000140050a60     libvcruntime:undname.obj
 0002:00003a70       ??_C@_0BC@DAFEJGAK@?5Type?5Descriptor?8@ 0000000140050a70     libvcruntime:undname.obj
 0002:00003a88       ??_C@_0BM@LDKODKLH@?5Base?5Class?5Descriptor?5at?5?$CI@ 0000000140050a88     libvcruntime:undname.obj
 0002:00003aa8       ??_C@_0BD@LGICGFMM@?5Base?5Class?5Array?8@ 0000000140050aa8     libvcruntime:undname.obj
 0002:00003ac0       ??_C@_0BN@MECKDCOJ@?5Class?5Hierarchy?5Descriptor?8@ 0000000140050ac0     libvcruntime:undname.obj
 0002:00003ae0       ??_C@_0BK@CFCOFLF@?5Complete?5Object?5Locator?8@ 0000000140050ae0     libvcruntime:undname.obj
 0002:00003b00       ??_C@_0BG@JNJLAMPM@?$GAanonymous?5namespace?8@ 0000000140050b00     libvcruntime:undname.obj
 0002:00003b30       ??_C@_1DM@KHCHBNEB@?$AAa?$AAp?$AAi?$AA?9?$AAm?$AAs?$AA?9?$AAw?$AAi?$AAn?$AA?9?$AAc?$AAo?$AAr?$AAe@ 0000000140050b30     libvcruntime:winapi_downlevel.obj
 0002:00003b70       ??_C@_1DK@LPPGFMPP@?$AAa?$AAp?$AAi?$AA?9?$AAm?$AAs?$AA?9?$AAw?$AAi?$AAn?$AA?9?$AAc?$AAo?$AAr?$AAe@ 0000000140050b70     libvcruntime:winapi_downlevel.obj
 0002:00003bb0       ??_C@_1BC@GDMECMAK@?$AAk?$AAe?$AAr?$AAn?$AAe?$AAl?$AA3?$AA2@ 0000000140050bb0     libvcruntime:winapi_downlevel.obj
 0002:00003bc8       ??_C@_1BA@PFFKHIOG@?$AAa?$AAp?$AAi?$AA?9?$AAm?$AAs?$AA?9@ 0000000140050bc8     libvcruntime:winapi_downlevel.obj
 0002:00003be0       ??_C@_08KNHFBNJ@FlsAlloc@  0000000140050be0     libvcruntime:winapi_downlevel.obj
 0002:00003bf8       ??_C@_07PEJMOBNF@FlsFree@  0000000140050bf8     libvcruntime:winapi_downlevel.obj
 0002:00003c08       ??_C@_0M@GDNOONDI@FlsGetValue@ 0000000140050c08     libvcruntime:winapi_downlevel.obj
 0002:00003c20       ??_C@_0M@JCPCPOEF@FlsSetValue@ 0000000140050c20     libvcruntime:winapi_downlevel.obj
 0002:00003c38       ??_C@_0BM@HCFOFFN@InitializeCriticalSectionEx@ 0000000140050c38     libvcruntime:winapi_downlevel.obj
 0002:00003d00       ??_7exception@std@@6B@     0000000140050d00     libvcruntime:frame.obj
 0002:00003d10       ??_C@_0BC@EOODALEL@Unknown?5exception@ 0000000140050d10     libvcruntime:frame.obj
 0002:00003d30       ??_7bad_exception@std@@6B@ 0000000140050d30     libvcruntime:frame.obj
 0002:00003d40       ??_C@_0O@DPKOEFFH@bad?5exception@ 0000000140050d40     libvcruntime:frame.obj
 0002:00003d50       __real@0000000000000000    0000000140050d50     libucrt:ldexp.obj
 0002:00003d58       __real@3ff0000000000000    0000000140050d58     libucrt:ldexp.obj
 0002:00003d60       ?standard_lookup_table_spectre@__crt_stdio_output@@3V?$spectre_mitigated_lookup_table@Ustate_transition_pair@__crt_stdio_output@@$0IA@@1@B 0000000140050d60     libucrt:output.obj
 0002:00003e60       ?format_validation_lookup_table_spectre@__crt_stdio_output@@3V?$spectre_mitigated_lookup_table@Ustate_transition_pair@__crt_stdio_output@@$0IA@@1@B 0000000140050e60     libucrt:output.obj
 0002:00003f60       ??_C@_1O@CEDCILHN@?$AA?$CI?$AAn?$AAu?$AAl?$AAl?$AA?$CJ@ 0000000140050f60     libucrt:output.obj
 0002:00003f70       ??_C@_06OJHGLDPL@?$CInull?$CJ@ 0000000140050f70     libucrt:output.obj
 0002:00003f80       ?large_power_data@?1??multiply_by_power_of_ten@__crt_strtox@@YA_NAEAUbig_integer@2@I@Z@4QBIB 0000000140050f80     libucrt:input.obj
 0002:00004890       ?large_power_indices@?1??multiply_by_power_of_ten@__crt_strtox@@YA_NAEAUbig_integer@2@I@Z@4QBUunpack_index@?1??12@YA_N0I@Z@B 0000000140051890     libucrt:input.obj
 0002:00004928       ?small_powers_of_ten@?1??multiply_by_power_of_ten@__crt_strtox@@YA_NAEAUbig_integer@2@I@Z@4QBIB 0000000140051928     libucrt:input.obj
 0002:00004950       ??_C@_1GE@DPGDJKLM@?$AAm?$AAi?$AAn?$AAk?$AAe?$AAr?$AAn?$AAe?$AAl?$AA?2?$AAc?$AAr?$AAt?$AAs?$AA?2@ 0000000140051950     libucrt:input.obj
 0002:000049c0       ??_C@_1FM@FELNCOBF@?$AA_?$AA_?$AAc?$AAr?$AAt?$AA_?$AAs?$AAt?$AAr?$AAt?$AAo?$AAx?$AA?3?$AA?3?$AAf@ 00000001400519c0     libucrt:input.obj
 0002:00004a20       ??_C@_1BG@GEMHBGAF@?$AA_?$AAi?$AAs?$AA_?$AAd?$AAo?$AAu?$AAb?$AAl?$AAe@ 0000000140051a20     libucrt:input.obj
 0002:00004a40       ??_C@_1FK@JOJELFFO@?$AA_?$AA_?$AAc?$AAr?$AAt?$AA_?$AAs?$AAt?$AAr?$AAt?$AAo?$AAx?$AA?3?$AA?3?$AAf@ 0000000140051a40     libucrt:input.obj
 0002:00004aa0       ??_C@_1BI@BANMPGJI@?$AA?$CB?$AA_?$AAi?$AAs?$AA_?$AAd?$AAo?$AAu?$AAb?$AAl?$AAe@ 0000000140051aa0     libucrt:input.obj
 0002:00004ac0       ?constraints@?1??is_length_valid@__crt_stdio_input@@YA_NW4conversion_mode@2@W4length_modifier@2@@Z@4QAY0M@$$CBEA 0000000140051ac0     libucrt:input.obj
 0002:00004b38       ?inf_uppercase@?1???$parse_floating_point_possible_infinity@DV?$input_adapter_character_source@V?$string_input_adapter@D@__crt_stdio_input@@@__crt_strtox@@_K@__crt_strtox@@YA?AW4floating_point_parse_result@1@AEADAEAV?$input_adapter_character_source@V?$string_input_adapter@D@__crt_stdio_input@@@1@_K@Z@4QBDB 0000000140051b38     libucrt:input.obj
 0002:00004b3c       ?inf_lowercase@?1???$parse_floating_point_possible_infinity@DV?$input_adapter_character_source@V?$string_input_adapter@D@__crt_stdio_input@@@__crt_strtox@@_K@__crt_strtox@@YA?AW4floating_point_parse_result@1@AEADAEAV?$input_adapter_character_source@V?$string_input_adapter@D@__crt_stdio_input@@@1@_K@Z@4QBDB 0000000140051b3c     libucrt:input.obj
 0002:00004b40       ?inity_uppercase@?1???$parse_floating_point_possible_infinity@DV?$input_adapter_character_source@V?$string_input_adapter@D@__crt_stdio_input@@@__crt_strtox@@_K@__crt_strtox@@YA?AW4floating_point_parse_result@1@AEADAEAV?$input_adapter_character_source@V?$string_input_adapter@D@__crt_stdio_input@@@1@_K@Z@4QBDB 0000000140051b40     libucrt:input.obj
 0002:00004b48       ?inity_lowercase@?1???$parse_floating_point_possible_infinity@DV?$input_adapter_character_source@V?$string_input_adapter@D@__crt_stdio_input@@@__crt_strtox@@_K@__crt_strtox@@YA?AW4floating_point_parse_result@1@AEADAEAV?$input_adapter_character_source@V?$string_input_adapter@D@__crt_stdio_input@@@1@_K@Z@4QBDB 0000000140051b48     libucrt:input.obj
 0002:00004b50       ?uppercase@?1???$parse_floating_point_possible_nan@DV?$input_adapter_character_source@V?$string_input_adapter@D@__crt_stdio_input@@@__crt_strtox@@_K@__crt_strtox@@YA?AW4floating_point_parse_result@1@AEADAEAV?$input_adapter_character_source@V?$string_input_adapter@D@__crt_stdio_input@@@1@_K@Z@4QBDB 0000000140051b50     libucrt:input.obj
 0002:00004b54       ?lowercase@?1???$parse_floating_point_possible_nan@DV?$input_adapter_character_source@V?$string_input_adapter@D@__crt_stdio_input@@@__crt_strtox@@_K@__crt_strtox@@YA?AW4floating_point_parse_result@1@AEADAEAV?$input_adapter_character_source@V?$string_input_adapter@D@__crt_stdio_input@@@1@_K@Z@4QBDB 0000000140051b54     libucrt:input.obj
 0002:00004b58       ?uppercase@?1???$parse_floating_point_possible_nan_is_snan@DV?$input_adapter_character_source@V?$string_input_adapter@D@__crt_stdio_input@@@__crt_strtox@@@__crt_strtox@@YA_NAEADAEAV?$input_adapter_character_source@V?$string_input_adapter@D@__crt_stdio_input@@@1@@Z@4QBDB 0000000140051b58     libucrt:input.obj
 0002:00004b60       ?lowercase@?1???$parse_floating_point_possible_nan_is_snan@DV?$input_adapter_character_source@V?$string_input_adapter@D@__crt_stdio_input@@@__crt_strtox@@@__crt_strtox@@YA_NAEADAEAV?$input_adapter_character_source@V?$string_input_adapter@D@__crt_stdio_input@@@1@@Z@4QBDB 0000000140051b60     libucrt:input.obj
 0002:00004b68       ?uppercase@?1???$parse_floating_point_possible_nan_is_ind@DV?$input_adapter_character_source@V?$string_input_adapter@D@__crt_stdio_input@@@__crt_strtox@@@__crt_strtox@@YA_NAEADAEAV?$input_adapter_character_source@V?$string_input_adapter@D@__crt_stdio_input@@@1@@Z@4QBDB 0000000140051b68     libucrt:input.obj
 0002:00004b6c       ?lowercase@?1???$parse_floating_point_possible_nan_is_ind@DV?$input_adapter_character_source@V?$string_input_adapter@D@__crt_stdio_input@@@__crt_strtox@@@__crt_strtox@@YA_NAEADAEAV?$input_adapter_character_source@V?$string_input_adapter@D@__crt_stdio_input@@@1@@Z@4QBDB 0000000140051b6c     libucrt:input.obj
 0002:00004b70       ??_C@_1FE@LHBLIKM@?$AAA?$AAs?$AAs?$AAe?$AAr?$AAt?$AAi?$AAo?$AAn?$AA?5?$AAf?$AAa?$AAi?$AAl?$AAe@ 0000000140051b70     libucrt:assert.obj
 0002:00004bd0       ??_C@_1EK@MBDPDCGA@?$AAM?$AAi?$AAc?$AAr?$AAo?$AAs?$AAo?$AAf?$AAt?$AA?5?$AAV?$AAi?$AAs?$AAu?$AAa@ 0000000140051bd0     libucrt:assert.obj
 0002:00004c20       ??_C@_1CE@OJBNHDMO@?$AAA?$AAs?$AAs?$AAe?$AAr?$AAt?$AAi?$AAo?$AAn?$AA?5?$AAf?$AAa?$AAi?$AAl?$AAe@ 0000000140051c20     libucrt:assert.obj
 0002:00004c48       ??_C@_1BE@PHKBBGE@?$AAP?$AAr?$AAo?$AAg?$AAr?$AAa?$AAm?$AA?3?$AA?5@ 0000000140051c48     libucrt:assert.obj
 0002:00004c60       ??_C@_1O@HEMHKNDC@?$AAF?$AAi?$AAl?$AAe?$AA?3?$AA?5@ 0000000140051c60     libucrt:assert.obj
 0002:00004c70       ??_C@_1O@KCAFKHJE@?$AAL?$AAi?$AAn?$AAe?$AA?3?$AA?5@ 0000000140051c70     libucrt:assert.obj
 0002:00004c80       ??_C@_1BK@PEDCIPMA@?$AAE?$AAx?$AAp?$AAr?$AAe?$AAs?$AAs?$AAi?$AAo?$AAn?$AA?3?$AA?5@ 0000000140051c80     libucrt:assert.obj
 0002:00004ca0       ??_C@_1OA@EGMLFBHJ@?$AAF?$AAo?$AAr?$AA?5?$AAi?$AAn?$AAf?$AAo?$AAr?$AAm?$AAa?$AAt?$AAi?$AAo?$AAn@ 0000000140051ca0     libucrt:assert.obj
 0002:00004d80       ??_C@_1HK@POCJMFGK@?$AA?$CI?$AAP?$AAr?$AAe?$AAs?$AAs?$AA?5?$AAR?$AAe?$AAt?$AAr?$AAy?$AA?5?$AAt?$AAo@ 0000000140051d80     libucrt:assert.obj
 0002:00004e00       ??_C@_17LGKOMLJ@?$AA?4?$AA?4?$AA?4@ 0000000140051e00     libucrt:assert.obj
 0002:00004e08       ??_C@_13LBAGMAIH@?$AA?6@   0000000140051e08     libucrt:assert.obj
 0002:00004e0c       ??_C@_15IABLJNFO@?$AA?6?$AA?6@ 0000000140051e0c     libucrt:assert.obj
 0002:00004e18       ??_C@_1CO@EAEJAADC@?$AA?$DM?$AAp?$AAr?$AAo?$AAg?$AAr?$AAa?$AAm?$AA?5?$AAn?$AAa?$AAm?$AAe?$AA?5?$AAu@ 0000000140051e18     libucrt:assert.obj
 0002:000055d8       __real@3f1a36e2eb1c432d    00000001400525d8     libucrt:atan2f.obj
 0002:000055e0       __real@3f490fdb            00000001400525e0     libucrt:atan2f.obj
 0002:000055e8       __real@3fb0000000000000    00000001400525e8     libucrt:atan2f.obj
 0002:000055f0       __real@3fc2492482bd6be1    00000001400525f0     libucrt:atan2f.obj
 0002:000055f8       __real@3fc90fdb            00000001400525f8     libucrt:atan2f.obj
 0002:00005600       __real@3fc99999999643a3    0000000140052600     libucrt:atan2f.obj
 0002:00005608       __real@3fd5555555550877    0000000140052608     libucrt:atan2f.obj
 0002:00005610       __real@3fd5555555555538    0000000140052610     libucrt:atan2f.obj
 0002:00005618       __real@3fe0000000000000    0000000140052618     libucrt:atan2f.obj
 0002:00005620       __real@3ff921fb54442d18    0000000140052620     libucrt:atan2f.obj
 0002:00005628       __real@400921fb54442d18    0000000140052628     libucrt:atan2f.obj
 0002:00005630       __real@4016cbe4            0000000140052630     libucrt:atan2f.obj
 0002:00005634       __real@40490fdb            0000000140052634     libucrt:atan2f.obj
 0002:00005638       __real@4070000000000000    0000000140052638     libucrt:atan2f.obj
 0002:00005640       __real@80000000            0000000140052640     libucrt:atan2f.obj
 0002:00005644       __real@bf490fdb            0000000140052644     libucrt:atan2f.obj
 0002:00005648       __real@bfc90fdb            0000000140052648     libucrt:atan2f.obj
 0002:0000564c       __real@c016cbe4            000000014005264c     libucrt:atan2f.obj
 0002:00005650       __real@c0490fdb            0000000140052650     libucrt:atan2f.obj
 0002:00005660       __xmm@80000000000000008000000000000000 0000000140052660     libucrt:atan2f.obj
 0002:0000578c       ??_C@_05OOAOEJGP@fmodf@    000000014005278c     libucrt:fmodf.obj
 0002:000061d0       ??_C@_05KGFAIMPG@sqrtf@    00000001400531d0     libucrt:sqrtf.obj
 0002:000062d0       __acrt_exception_action_table 00000001400532d0     libucrt:exception_filter.obj
 0002:00006390       __acrt_signal_action_table_count 0000000140053390     libucrt:exception_filter.obj
 0002:00006398       __acrt_signal_action_first_fpe_index 0000000140053398     libucrt:exception_filter.obj
 0002:000063a0       __acrt_signal_action_fpe_count 00000001400533a0     libucrt:exception_filter.obj
 0002:00006420       ??_C@_1BI@BGOHAHKC@?$AAm?$AAs?$AAc?$AAo?$AAr?$AAe?$AAe?$AA?4?$AAd?$AAl?$AAl@ 0000000140053420     libucrt:exit.obj
 0002:00006438       ??_C@_0P@MIGLKIOC@CorExitProcess@ 0000000140053438     libucrt:exit.obj
 0002:00006570       __newctype                 0000000140053570     libucrt:ctype.obj
 0002:00006870       __newclmap                 0000000140053870     libucrt:ctype.obj
 0002:000069f0       __newcumap                 00000001400539f0     libucrt:ctype.obj
 0002:00006ce0       __lc_time_c                0000000140053ce0     libucrt:nlsdata.obj
 0002:00006fa0       ??_C@_03KOEHGMDN@Sun@      0000000140053fa0     libucrt:nlsdata.obj
 0002:00006fa4       ??_C@_03PDAGKDH@Mon@       0000000140053fa4     libucrt:nlsdata.obj
 0002:00006fa8       ??_C@_03NAGEINEP@Tue@      0000000140053fa8     libucrt:nlsdata.obj
 0002:00006fac       ??_C@_03MHOMLAJA@Wed@      0000000140053fac     libucrt:nlsdata.obj
 0002:00006fb0       ??_C@_03IOFIKPDN@Thu@      0000000140053fb0     libucrt:nlsdata.obj
 0002:00006fb4       ??_C@_03IDIOELNC@Fri@      0000000140053fb4     libucrt:nlsdata.obj
 0002:00006fb8       ??_C@_03FEFJNEK@Sat@       0000000140053fb8     libucrt:nlsdata.obj
 0002:00006fbc       ??_C@_06OOPIFAJ@Sunday@    0000000140053fbc     libucrt:nlsdata.obj
 0002:00006fc4       ??_C@_06JLEDEDGH@Monday@   0000000140053fc4     libucrt:nlsdata.obj
 0002:00006fd0       ??_C@_07BAAGCFCM@Tuesday@  0000000140053fd0     libucrt:nlsdata.obj
 0002:00006fd8       ??_C@_09DLIGFAKA@Wednesday@ 0000000140053fd8     libucrt:nlsdata.obj
 0002:00006fe8       ??_C@_08HACCIKIA@Thursday@ 0000000140053fe8     libucrt:nlsdata.obj
 0002:00006ff4       ??_C@_06JECMNKMI@Friday@   0000000140053ff4     libucrt:nlsdata.obj
 0002:00007000       ??_C@_08INBOOONO@Saturday@ 0000000140054000     libucrt:nlsdata.obj
 0002:0000700c       ??_C@_03JIHJHPIE@Jan@      000000014005400c     libucrt:nlsdata.obj
 0002:00007010       ??_C@_03HJBDCHOM@Feb@      0000000140054010     libucrt:nlsdata.obj
 0002:00007014       ??_C@_03ODNJBKGA@Mar@      0000000140054014     libucrt:nlsdata.obj
 0002:00007018       ??_C@_03LEOLGMJP@Apr@      0000000140054018     libucrt:nlsdata.obj
 0002:0000701c       ??_C@_03CNMDKL@May@        000000014005401c     libucrt:nlsdata.obj
 0002:00007020       ??_C@_03IDFGHECI@Jun@      0000000140054020     libucrt:nlsdata.obj
 0002:00007024       ??_C@_03LBGABGKK@Jul@      0000000140054024     libucrt:nlsdata.obj
 0002:00007028       ??_C@_03IFJFEIGA@Aug@      0000000140054028     libucrt:nlsdata.obj
 0002:0000702c       ??_C@_03GGCAPAJC@Sep@      000000014005402c     libucrt:nlsdata.obj
 0002:00007030       ??_C@_03BMAOKBAD@Oct@      0000000140054030     libucrt:nlsdata.obj
 0002:00007034       ??_C@_03JPJOFNIA@Nov@      0000000140054034     libucrt:nlsdata.obj
 0002:00007038       ??_C@_03MKABNOCG@Dec@      0000000140054038     libucrt:nlsdata.obj
 0002:00007040       ??_C@_07CGJPFGJA@January@  0000000140054040     libucrt:nlsdata.obj
 0002:00007048       ??_C@_08GNJGEPFN@February@ 0000000140054048     libucrt:nlsdata.obj
 0002:00007054       ??_C@_05HPCKOFNC@March@    0000000140054054     libucrt:nlsdata.obj
 0002:0000705c       ??_C@_05DMJDNLEJ@April@    000000014005405c     libucrt:nlsdata.obj
 0002:00007064       ??_C@_04CNLMGBGM@June@     0000000140054064     libucrt:nlsdata.obj
 0002:0000706c       ??_C@_04MIEPOIFP@July@     000000014005406c     libucrt:nlsdata.obj
 0002:00007074       ??_C@_06LBBHFDDG@August@   0000000140054074     libucrt:nlsdata.obj
 0002:00007080       ??_C@_09BHHEALKD@September@ 0000000140054080     libucrt:nlsdata.obj
 0002:00007090       ??_C@_07JJNFCEND@October@  0000000140054090     libucrt:nlsdata.obj
 0002:00007098       ??_C@_08HCHEGEOA@November@ 0000000140054098     libucrt:nlsdata.obj
 0002:000070a8       ??_C@_08EDHMEBNP@December@ 00000001400540a8     libucrt:nlsdata.obj
 0002:000070b4       ??_C@_02DEDBPAFC@AM@       00000001400540b4     libucrt:nlsdata.obj
 0002:000070b8       ??_C@_02CJNFDJBF@PM@       00000001400540b8     libucrt:nlsdata.obj
 0002:000070c0       ??_C@_08BPBNCDIB@MM?1dd?1yy@ 00000001400540c0     libucrt:nlsdata.obj
 0002:000070d0       ??_C@_0BE@CKGJFCPC@dddd?0?5MMMM?5dd?0?5yyyy@ 00000001400540d0     libucrt:nlsdata.obj
 0002:000070e8       ??_C@_08JCCMCCIL@HH?3mm?3ss@ 00000001400540e8     libucrt:nlsdata.obj
 0002:000070f8       ??_C@_17MBGCMIPB@?$AAS?$AAu?$AAn@ 00000001400540f8     libucrt:nlsdata.obj
 0002:00007100       ??_C@_17KBOMKBF@?$AAM?$AAo?$AAn@ 0000000140054100     libucrt:nlsdata.obj
 0002:00007108       ??_C@_17BMKGEGOJ@?$AAT?$AAu?$AAe@ 0000000140054108     libucrt:nlsdata.obj
 0002:00007110       ??_C@_17CJEDCEPE@?$AAW?$AAe?$AAd@ 0000000140054110     libucrt:nlsdata.obj
 0002:00007118       ??_C@_17PDPHAADD@?$AAT?$AAh?$AAu@ 0000000140054118     libucrt:nlsdata.obj
 0002:00007120       ??_C@_17HFOLPPLP@?$AAF?$AAr?$AAi@ 0000000140054120     libucrt:nlsdata.obj
 0002:00007128       ??_C@_17GGIBDPIH@?$AAS?$AAa?$AAt@ 0000000140054128     libucrt:nlsdata.obj
 0002:00007130       ??_C@_1O@IHNHDHPB@?$AAS?$AAu?$AAn?$AAd?$AAa?$AAy@ 0000000140054130     libucrt:nlsdata.obj
 0002:00007140       ??_C@_1O@MMNBFLIA@?$AAM?$AAo?$AAn?$AAd?$AAa?$AAy@ 0000000140054140     libucrt:nlsdata.obj
 0002:00007150       ??_C@_1BA@ENFBFFEK@?$AAT?$AAu?$AAe?$AAs?$AAd?$AAa?$AAy@ 0000000140054150     libucrt:nlsdata.obj
 0002:00007160       ??_C@_1BE@EBOGMDOH@?$AAW?$AAe?$AAd?$AAn?$AAe?$AAs?$AAd?$AAa?$AAy@ 0000000140054160     libucrt:nlsdata.obj
 0002:00007178       ??_C@_1BC@HHMNLIHE@?$AAT?$AAh?$AAu?$AAr?$AAs?$AAd?$AAa?$AAy@ 0000000140054178     libucrt:nlsdata.obj
 0002:00007190       ??_C@_1O@PDICJHAG@?$AAF?$AAr?$AAi?$AAd?$AAa?$AAy@ 0000000140054190     libucrt:nlsdata.obj
 0002:000071a0       ??_C@_1BC@ENMNNPAJ@?$AAS?$AAa?$AAt?$AAu?$AAr?$AAd?$AAa?$AAy@ 00000001400541a0     libucrt:nlsdata.obj
 0002:000071b8       ??_C@_17DKNBKCHM@?$AAJ?$AAa?$AAn@ 00000001400541b8     libucrt:nlsdata.obj
 0002:000071c0       ??_C@_17LMDJEKJN@?$AAF?$AAe?$AAb@ 00000001400541c0     libucrt:nlsdata.obj
 0002:000071c8       ??_C@_17CKNLEDEC@?$AAM?$AAa?$AAr@ 00000001400541c8     libucrt:nlsdata.obj
 0002:000071d0       ??_C@_17LFPOIHDD@?$AAA?$AAp?$AAr@ 00000001400541d0     libucrt:nlsdata.obj
 0002:000071d8       ??_C@_17PNNKMEED@?$AAM?$AAa?$AAy@ 00000001400541d8     libucrt:nlsdata.obj
 0002:000071e0       ??_C@_17KCJGOCPB@?$AAJ?$AAu?$AAn@ 00000001400541e0     libucrt:nlsdata.obj
 0002:000071e8       ??_C@_17IJPCKHK@?$AAJ?$AAu?$AAl@ 00000001400541e8     libucrt:nlsdata.obj
 0002:000071f0       ??_C@_17ICPELBCN@?$AAA?$AAu?$AAg@ 00000001400541f0     libucrt:nlsdata.obj
 0002:000071f8       ??_C@_17HCHCOKMG@?$AAS?$AAe?$AAp@ 00000001400541f8     libucrt:nlsdata.obj
 0002:00007200       ??_C@_17FNLKOI@?$AAO?$AAc?$AAt@ 0000000140054200     libucrt:nlsdata.obj
 0002:00007208       ??_C@_17BBDMLCIG@?$AAN?$AAo?$AAv@ 0000000140054208     libucrt:nlsdata.obj
 0002:00007210       ??_C@_17EGKACKIF@?$AAD?$AAe?$AAc@ 0000000140054210     libucrt:nlsdata.obj
 0002:00007218       ??_C@_1BA@EFMEIEBA@?$AAJ?$AAa?$AAn?$AAu?$AAa?$AAr?$AAy@ 0000000140054218     libucrt:nlsdata.obj
 0002:00007228       ??_C@_1BC@JGDDFFAM@?$AAF?$AAe?$AAb?$AAr?$AAu?$AAa?$AAr?$AAy@ 0000000140054228     libucrt:nlsdata.obj
 0002:00007240       ??_C@_1M@IKEENEDF@?$AAM?$AAa?$AAr?$AAc?$AAh@ 0000000140054240     libucrt:nlsdata.obj
 0002:00007250       ??_C@_1M@GJNLMHFD@?$AAA?$AAp?$AAr?$AAi?$AAl@ 0000000140054250     libucrt:nlsdata.obj
 0002:00007260       ??_C@_19EPFLPGAP@?$AAJ?$AAu?$AAn?$AAe@ 0000000140054260     libucrt:nlsdata.obj
 0002:00007270       ??_C@_19BIFMLPCD@?$AAJ?$AAu?$AAl?$AAy@ 0000000140054270     libucrt:nlsdata.obj
 0002:00007280       ??_C@_1O@PAHLKOAC@?$AAA?$AAu?$AAg?$AAu?$AAs?$AAt@ 0000000140054280     libucrt:nlsdata.obj
 0002:00007290       ??_C@_1BE@DKAAMBJL@?$AAS?$AAe?$AAp?$AAt?$AAe?$AAm?$AAb?$AAe?$AAr@ 0000000140054290     libucrt:nlsdata.obj
 0002:000072a8       ??_C@_1BA@EPANDLNG@?$AAO?$AAc?$AAt?$AAo?$AAb?$AAe?$AAr@ 00000001400542a8     libucrt:nlsdata.obj
 0002:000072b8       ??_C@_1BC@BGLIFPF@?$AAN?$AAo?$AAv?$AAe?$AAm?$AAb?$AAe?$AAr@ 00000001400542b8     libucrt:nlsdata.obj
 0002:000072d0       ??_C@_1BC@FEMKIFH@?$AAD?$AAe?$AAc?$AAe?$AAm?$AAb?$AAe?$AAr@ 00000001400542d0     libucrt:nlsdata.obj
 0002:000072e4       ??_C@_15ODEHAHHF@?$AAA?$AAM@ 00000001400542e4     libucrt:nlsdata.obj
 0002:000072ec       ??_C@_15CLMNNGEL@?$AAP?$AAM@ 00000001400542ec     libucrt:nlsdata.obj
 0002:000072f8       ??_C@_1BC@IEBCMHCM@?$AAM?$AAM?$AA?1?$AAd?$AAd?$AA?1?$AAy?$AAy@ 00000001400542f8     libucrt:nlsdata.obj
 0002:00007310       ??_C@_1CI@KNAKOEBC@?$AAd?$AAd?$AAd?$AAd?$AA?0?$AA?5?$AAM?$AAM?$AAM?$AAM?$AA?5?$AAd?$AAd?$AA?0?$AA?5@ 0000000140054310     libucrt:nlsdata.obj
 0002:00007338       ??_C@_1BC@GDGBMEMK@?$AAH?$AAH?$AA?3?$AAm?$AAm?$AA?3?$AAs?$AAs@ 0000000140054338     libucrt:nlsdata.obj
 0002:00007350       ??_C@_1M@BMHNFIME@?$AAe?$AAn?$AA?9?$AAU?$AAS@ 0000000140054350     libucrt:nlsdata.obj
 0002:00007360       _d_inf                     0000000140054360     libucrt:util.obj
 0002:00007368       _d_max                     0000000140054368     libucrt:util.obj
 0002:00007540       ??_C@_03KHJOGHMM@exp@      0000000140054540     libucrt:fpexcept.obj
 0002:00007544       ??_C@_03JGHBODFD@pow@      0000000140054544     libucrt:fpexcept.obj
 0002:00007548       ??_C@_03MGHMBJCF@log@      0000000140054548     libucrt:fpexcept.obj
 0002:0000754c       ??_C@_05HGHHAHAP@log10@    000000014005454c     libucrt:fpexcept.obj
 0002:00007554       ??_C@_04COOMCNPB@sinh@     0000000140054554     libucrt:fpexcept.obj
 0002:0000755c       ??_C@_04HPJJNFIM@cosh@     000000014005455c     libucrt:fpexcept.obj
 0002:00007564       ??_C@_04FJHINJAO@tanh@     0000000140054564     libucrt:fpexcept.obj
 0002:0000756c       ??_C@_04FIHNOPOL@asin@     000000014005456c     libucrt:fpexcept.obj
 0002:00007574       ??_C@_04PDIFKINK@acos@     0000000140054574     libucrt:fpexcept.obj
 0002:0000757c       ??_C@_04MLLJIGOK@atan@     000000014005457c     libucrt:fpexcept.obj
 0002:00007584       ??_C@_05KNGEOGJB@atan2@    0000000140054584     libucrt:fpexcept.obj
 0002:0000758c       ??_C@_04EIAKFFMI@sqrt@     000000014005458c     libucrt:fpexcept.obj
 0002:00007594       ??_C@_03BLEJJJBH@sin@      0000000140054594     libucrt:fpexcept.obj
 0002:00007598       ??_C@_03LALBNOCG@cos@      0000000140054598     libucrt:fpexcept.obj
 0002:0000759c       ??_C@_03IIINPABG@tan@      000000014005459c     libucrt:fpexcept.obj
 0002:000075a0       ??_C@_04GFPJNGEK@ceil@     00000001400545a0     libucrt:fpexcept.obj
 0002:000075a8       ??_C@_05PBJFFIGL@floor@    00000001400545a8     libucrt:fpexcept.obj
 0002:000075b0       ??_C@_04ODHECPBC@fabs@     00000001400545b0     libucrt:fpexcept.obj
 0002:000075b8       ??_C@_04EHEDPDJG@modf@     00000001400545b8     libucrt:fpexcept.obj
 0002:000075c0       ??_C@_05CEJMAHNP@ldexp@    00000001400545c0     libucrt:fpexcept.obj
 0002:000075c8       ??_C@_05KBKMEMPO@_cabs@    00000001400545c8     libucrt:fpexcept.obj
 0002:000075d0       ??_C@_06MEIMCGCF@_hypot@   00000001400545d0     libucrt:fpexcept.obj
 0002:000075d8       ??_C@_04KEPJIHGP@fmod@     00000001400545d8     libucrt:fpexcept.obj
 0002:000075e0       ??_C@_05GKKHEGJL@frexp@    00000001400545e0     libucrt:fpexcept.obj
 0002:000075e8       ??_C@_03MJLDFKDL@_y0@      00000001400545e8     libucrt:fpexcept.obj
 0002:000075ec       ??_C@_03NAKIGLHK@_y1@      00000001400545ec     libucrt:fpexcept.obj
 0002:000075f0       ??_C@_03ONILCKOB@_yn@      00000001400545f0     libucrt:fpexcept.obj
 0002:000075f4       ??_C@_05JGDBENOH@_logb@    00000001400545f4     libucrt:fpexcept.obj
 0002:00007600       ??_C@_0L@KDOEJCKC@_nextafter@ 0000000140054600     libucrt:fpexcept.obj
 0002:000076b0       ??_C@_1EA@JGEFHKEI@?$AAa?$AAp?$AAi?$AA?9?$AAm?$AAs?$AA?9?$AAw?$AAi?$AAn?$AA?9?$AAc?$AAo?$AAr?$AAe@ 00000001400546b0     libucrt:winapi_thunks.obj
 0002:000076f0       ??_C@_1DI@IJCEHOCB@?$AAa?$AAp?$AAi?$AA?9?$AAm?$AAs?$AA?9?$AAw?$AAi?$AAn?$AA?9?$AAc?$AAo?$AAr?$AAe@ 00000001400546f0     libucrt:winapi_thunks.obj
 0002:00007730       ??_C@_1EI@MPIAOHOC@?$AAa?$AAp?$AAi?$AA?9?$AAm?$AAs?$AA?9?$AAw?$AAi?$AAn?$AA?9?$AAc?$AAo?$AAr?$AAe@ 0000000140054730     libucrt:winapi_thunks.obj
 0002:00007780       ??_C@_1FK@FPHCKFIE@?$AAa?$AAp?$AAi?$AA?9?$AAm?$AAs?$AA?9?$AAw?$AAi?$AAn?$AA?9?$AAc?$AAo?$AAr?$AAe@ 0000000140054780     libucrt:winapi_thunks.obj
 0002:000077e0       ??_C@_1EM@DILCGIIO@?$AAa?$AAp?$AAi?$AA?9?$AAm?$AAs?$AA?9?$AAw?$AAi?$AAn?$AA?9?$AAc?$AAo?$AAr?$AAe@ 00000001400547e0     libucrt:winapi_thunks.obj
 0002:00007830       ??_C@_1DM@LNCGDDPN@?$AAa?$AAp?$AAi?$AA?9?$AAm?$AAs?$AA?9?$AAw?$AAi?$AAn?$AA?9?$AAc?$AAo?$AAr?$AAe@ 0000000140054830     libucrt:winapi_thunks.obj
 0002:00007870       ??_C@_1DO@FPAPJEMD@?$AAa?$AAp?$AAi?$AA?9?$AAm?$AAs?$AA?9?$AAw?$AAi?$AAn?$AA?9?$AAc?$AAo?$AAr?$AAe@ 0000000140054870     libucrt:winapi_thunks.obj
 0002:000078b0       ??_C@_1DK@NDHNAHIO@?$AAa?$AAp?$AAi?$AA?9?$AAm?$AAs?$AA?9?$AAw?$AAi?$AAn?$AA?9?$AAc?$AAo?$AAr?$AAe@ 00000001400548b0     libucrt:winapi_thunks.obj
 0002:000078f0       ??_C@_1DM@KGHDGBCM@?$AAa?$AAp?$AAi?$AA?9?$AAm?$AAs?$AA?9?$AAw?$AAi?$AAn?$AA?9?$AAc?$AAo?$AAr?$AAe@ 00000001400548f0     libucrt:winapi_thunks.obj
 0002:00007930       ??_C@_1EO@IJIOEFOH@?$AAa?$AAp?$AAi?$AA?9?$AAm?$AAs?$AA?9?$AAw?$AAi?$AAn?$AA?9?$AAr?$AAt?$AAc?$AAo@ 0000000140054930     libucrt:winapi_thunks.obj
 0002:00007980       ??_C@_1FG@HHGEKANL@?$AAa?$AAp?$AAi?$AA?9?$AAm?$AAs?$AA?9?$AAw?$AAi?$AAn?$AA?9?$AAs?$AAe?$AAc?$AAu@ 0000000140054980     libucrt:winapi_thunks.obj
 0002:000079e0       ??_C@_1EG@DBIOJECG@?$AAe?$AAx?$AAt?$AA?9?$AAm?$AAs?$AA?9?$AAw?$AAi?$AAn?$AA?9?$AAn?$AAt?$AAu?$AAs@ 00000001400549e0     libucrt:winapi_thunks.obj
 0002:00007a30       ??_C@_1EO@FIHMJCLF@?$AAe?$AAx?$AAt?$AA?9?$AAm?$AAs?$AA?9?$AAw?$AAi?$AAn?$AA?9?$AAn?$AAt?$AAu?$AAs@ 0000000140054a30     libucrt:winapi_thunks.obj
 0002:00007a80       ??_C@_1BC@DNHGCMLG@?$AAa?$AAd?$AAv?$AAa?$AAp?$AAi?$AA3?$AA2@ 0000000140054a80     libucrt:winapi_thunks.obj
 0002:00007a98       ??_C@_1M@OAIMIKLP@?$AAn?$AAt?$AAd?$AAl?$AAl@ 0000000140054a98     libucrt:winapi_thunks.obj
 0002:00007ab0       ??_C@_1EG@DPGNFKGC@?$AAa?$AAp?$AAi?$AA?9?$AAm?$AAs?$AA?9?$AAw?$AAi?$AAn?$AA?9?$AAa?$AAp?$AAp?$AAm@ 0000000140054ab0     libucrt:winapi_thunks.obj
 0002:00007af8       ??_C@_1O@BCCLBEOE@?$AAu?$AAs?$AAe?$AAr?$AA3?$AA2@ 0000000140054af8     libucrt:winapi_thunks.obj
 0002:00007b08       ??_C@_1BA@IAIFMGEF@?$AAe?$AAx?$AAt?$AA?9?$AAm?$AAs?$AA?9@ 0000000140054b08     libucrt:winapi_thunks.obj
 0002:00007b20       ??_C@_0BA@FHFNEAED@AreFileApisANSI@ 0000000140054b20     libucrt:winapi_thunks.obj
 0002:00007b38       ??_C@_0BA@HNOPNCHB@GetActiveWindow@ 0000000140054b38     libucrt:winapi_thunks.obj
 0002:00007b50       ??_C@_0BD@HHGDFDBJ@GetLastActivePopup@ 0000000140054b50     libucrt:winapi_thunks.obj
 0002:00007b70       ??_C@_0BI@DFKBFLJE@GetProcessWindowStation@ 0000000140054b70     libucrt:winapi_thunks.obj
 0002:00007b90       ??_C@_0BK@DEKFELLI@GetUserObjectInformationW@ 0000000140054b90     libucrt:winapi_thunks.obj
 0002:00007bc0       ??_C@_0O@KKBNKAPF@LCMapStringEx@ 0000000140054bc0     libucrt:winapi_thunks.obj
 0002:00007bd8       ??_C@_0BB@HBDEELFH@LocaleNameToLCID@ 0000000140054bd8     libucrt:winapi_thunks.obj
 0002:00007bf8       ??_C@_0M@CHKKJDAI@MessageBoxA@ 0000000140054bf8     libucrt:winapi_thunks.obj
 0002:00007c10       ??_C@_0M@DLDCCGNP@MessageBoxW@ 0000000140054c10     libucrt:winapi_thunks.obj
 0002:00007c20       ??_C@_0CF@OJOFEIGO@AppPolicyGetProcessTerminationM@ 0000000140054c20     libucrt:winapi_thunks.obj
 0002:00007c50       ??_C@_0CE@OICFMIKE@AppPolicyGetShowDeveloperDiagno@ 0000000140054c50     libucrt:winapi_thunks.obj
 0002:00007c78       ??_C@_0BL@ODDJNEDA@AppPolicyGetWindowingModel@ 0000000140054c78     libucrt:winapi_thunks.obj
 0002:00007c94       ?ccs@?1???$__acrt_stdio_parse_mode@D@@YA?AU__acrt_stdio_stream_mode@@QEBD@Z@4QBDB 0000000140054c94     libucrt:openfile.obj
 0002:00007c98       ?utf8_encoding@?1???$__acrt_stdio_parse_mode@D@@YA?AU__acrt_stdio_stream_mode@@QEBD@Z@4QBDB 0000000140054c98     libucrt:openfile.obj
 0002:00007ca0       ?utf16_encoding@?1???$__acrt_stdio_parse_mode@D@@YA?AU__acrt_stdio_stream_mode@@QEBD@Z@4QBDB 0000000140054ca0     libucrt:openfile.obj
 0002:00007ca8       ?unicode_encoding@?1???$__acrt_stdio_parse_mode@D@@YA?AU__acrt_stdio_stream_mode@@QEBD@Z@4QBDB 0000000140054ca8     libucrt:openfile.obj
 0002:00007d60       ??_C@_03OEIAHPBN@INF@      0000000140054d60     libucrt:cvt.obj
 0002:00007d64       ??_C@_03OJHLLCGB@inf@      0000000140054d64     libucrt:cvt.obj
 0002:00007d68       ??_C@_03LKNCIKJB@NAN@      0000000140054d68     libucrt:cvt.obj
 0002:00007d6c       ??_C@_03LHCJEHON@nan@      0000000140054d6c     libucrt:cvt.obj
 0002:00007d70       ??_C@_09OFJJIMPC@NAN?$CISNAN?$CJ@ 0000000140054d70     libucrt:cvt.obj
 0002:00007d80       ??_C@_09IPFBKMDL@nan?$CIsnan?$CJ@ 0000000140054d80     libucrt:cvt.obj
 0002:00007d90       ??_C@_08IKHNHAJ@NAN?$CIIND?$CJ@ 0000000140054d90     libucrt:cvt.obj
 0002:00007da0       ??_C@_08OFCDMILK@nan?$CIind?$CJ@ 0000000140054da0     libucrt:cvt.obj
 0002:00007dac       ??_C@_05KLBDPFGC@e?$CL000@ 0000000140054dac     libucrt:cvt.obj
 0002:00007f30       ??_C@_04LAGPAAHP@sinf@     0000000140054f30     libucrt:sincos_special.obj
 0002:00007f38       ??_C@_04OBBKPIAC@cosf@     0000000140054f38     libucrt:sincos_special.obj
 0002:00007f40       ??_C@_04MHPLPEIA@tanf@     0000000140054f40     libucrt:sincos_special.obj
 0002:00007f50       __Lcosfarray               0000000140054f50     libucrt:lsincosf_array.obj
 0002:00007f80       __Lsinfarray               0000000140054f80     libucrt:lsincosf_array.obj
 0002:00007fa0       __two_to_jby64_table       0000000140054fa0     libucrt:two_to_jby64_table.obj
 0002:000081a0       __log_F_inv_qword          00000001400551a0     libucrt:log_f_inv_qword_table.obj
 0002:000089b0       ??_C@_04MBFDLNIM@powf@     00000001400559b0     libucrt:pow_special.obj
 0002:000089c0       __L_2_by_pi_bits           00000001400559c0     libucrt:l2_by_pi_bits.obj
 0002:00008b30       ??_C@_1M@HPNHIDJI@?$AAj?$AAa?$AA?9?$AAJ?$AAP@ 0000000140055b30     libucrt:mbctype.obj
 0002:00008b40       ??_C@_1M@BIBDDEMK@?$AAz?$AAh?$AA?9?$AAC?$AAN@ 0000000140055b40     libucrt:mbctype.obj
 0002:00008b50       ??_C@_1M@JLOOOEGK@?$AAk?$AAo?$AA?9?$AAK?$AAR@ 0000000140055b50     libucrt:mbctype.obj
 0002:00008b60       ??_C@_1M@CLNBBOPM@?$AAz?$AAh?$AA?9?$AAT?$AAW@ 0000000140055b60     libucrt:mbctype.obj
 0002:00008b6c       ??_C@_15PJPFLCCM@?$AAu?$AAk@ 0000000140055b6c     libucrt:get_qualified_locale.obj
 0002:000099d0       ??_C@_15EMKDOKLE@?$AAa?$AAr@ 00000001400569d0     libucrt:lcidtoname_downlevel.obj
 0002:000099d8       ??_C@_15KNPADPLH@?$AAb?$AAg@ 00000001400569d8     libucrt:lcidtoname_downlevel.obj
 0002:000099e0       ??_C@_15EDMHLDMO@?$AAc?$AAa@ 00000001400569e0     libucrt:lcidtoname_downlevel.obj
 0002:000099e8       ??_C@_1O@BPEAJADD@?$AAz?$AAh?$AA?9?$AAC?$AAH?$AAS@ 00000001400569e8     libucrt:lcidtoname_downlevel.obj
 0002:000099f8       ??_C@_15LJNHCMNK@?$AAc?$AAs@ 00000001400569f8     libucrt:lcidtoname_downlevel.obj
 0002:00009a00       ??_C@_15FOMCIDHG@?$AAd?$AAa@ 0000000140056a00     libucrt:lcidtoname_downlevel.obj
 0002:00009a08       ??_C@_15NBKABECB@?$AAd?$AAe@ 0000000140056a08     libucrt:lcidtoname_downlevel.obj
 0002:00009a10       ??_C@_15GHPEIIAO@?$AAe?$AAl@ 0000000140056a10     libucrt:lcidtoname_downlevel.obj
 0002:00009a18       ??_C@_15MNPNEAIF@?$AAe?$AAn@ 0000000140056a18     libucrt:lcidtoname_downlevel.obj
 0002:00009a20       ??_C@_15GPIOMPMH@?$AAe?$AAs@ 0000000140056a20     libucrt:lcidtoname_downlevel.obj
 0002:00009a28       ??_C@_15NGLOAKJC@?$AAf?$AAi@ 0000000140056a28     libucrt:lcidtoname_downlevel.obj
 0002:00009a30       ??_C@_15FBKGNKAM@?$AAf?$AAr@ 0000000140056a30     libucrt:lcidtoname_downlevel.obj
 0002:00009a38       ??_C@_15KGGCNEFK@?$AAh?$AAe@ 0000000140056a38     libucrt:lcidtoname_downlevel.obj
 0002:00009a40       ??_C@_15PGHLIDMF@?$AAh?$AAu@ 0000000140056a40     libucrt:lcidtoname_downlevel.obj
 0002:00009a48       ??_C@_15BIEMAPLM@?$AAi?$AAs@ 0000000140056a48     libucrt:lcidtoname_downlevel.obj
 0002:00009a50       ??_C@_15IFJLDHAF@?$AAi?$AAt@ 0000000140056a50     libucrt:lcidtoname_downlevel.obj
 0002:00009a58       ??_C@_15GEMIOCAG@?$AAj?$AAa@ 0000000140056a58     libucrt:lcidtoname_downlevel.obj
 0002:00009a60       ??_C@_15EPELEGJA@?$AAk?$AAo@ 0000000140056a60     libucrt:lcidtoname_downlevel.obj
 0002:00009a68       ??_C@_15NDDHIMN@?$AAn?$AAl@ 0000000140056a68     libucrt:lcidtoname_downlevel.obj
 0002:00009a70       ??_C@_15BPIGNHCD@?$AAn?$AAo@ 0000000140056a70     libucrt:lcidtoname_downlevel.obj
 0002:00009a78       ??_C@_15DEOPBLCG@?$AAp?$AAl@ 0000000140056a78     libucrt:lcidtoname_downlevel.obj
 0002:00009a80       ??_C@_15KBECGEFG@?$AAp?$AAt@ 0000000140056a80     libucrt:lcidtoname_downlevel.obj
 0002:00009a88       ??_C@_15GLJCBFMD@?$AAr?$AAo@ 0000000140056a88     libucrt:lcidtoname_downlevel.obj
 0002:00009a90       ??_C@_15FEDGKCDI@?$AAr?$AAu@ 0000000140056a90     libucrt:lcidtoname_downlevel.obj
 0002:00009a98       ??_C@_15GLKMLLHM@?$AAh?$AAr@ 0000000140056a98     libucrt:lcidtoname_downlevel.obj
 0002:00009aa0       ??_C@_15CPKMFBDB@?$AAs?$AAk@ 0000000140056aa0     libucrt:lcidtoname_downlevel.obj
 0002:00009aa8       ??_C@_15BAAIOGMK@?$AAs?$AAq@ 0000000140056aa8     libucrt:lcidtoname_downlevel.obj
 0002:00009ab0       ??_C@_15INNPNOHD@?$AAs?$AAv@ 0000000140056ab0     libucrt:lcidtoname_downlevel.obj
 0002:00009ab8       ??_C@_15CABMMOGH@?$AAt?$AAh@ 0000000140056ab8     libucrt:lcidtoname_downlevel.obj
 0002:00009ac0       ??_C@_15BPLIHJJM@?$AAt?$AAr@ 0000000140056ac0     libucrt:lcidtoname_downlevel.obj
 0002:00009ac8       ??_C@_15NEOEKKDJ@?$AAu?$AAr@ 0000000140056ac8     libucrt:lcidtoname_downlevel.obj
 0002:00009ad0       ??_C@_15NFICGAJK@?$AAi?$AAd@ 0000000140056ad0     libucrt:lcidtoname_downlevel.obj
 0002:00009ad8       ??_C@_15HPJPHDM@?$AAb?$AAe@ 0000000140056ad8     libucrt:lcidtoname_downlevel.obj
 0002:00009ae0       ??_C@_15LCHLGJII@?$AAs?$AAl@ 0000000140056ae0     libucrt:lcidtoname_downlevel.obj
 0002:00009ae8       ??_C@_15PCFJPHHO@?$AAe?$AAt@ 0000000140056ae8     libucrt:lcidtoname_downlevel.obj
 0002:00009af0       ??_C@_15HPFPGODN@?$AAl?$AAv@ 0000000140056af0     libucrt:lcidtoname_downlevel.obj
 0002:00009af8       ??_C@_15NFFGKGLG@?$AAl?$AAt@ 0000000140056af8     libucrt:lcidtoname_downlevel.obj
 0002:00009b00       ??_C@_15BDAKCCHN@?$AAf?$AAa@ 0000000140056b00     libucrt:lcidtoname_downlevel.obj
 0002:00009b08       ??_C@_15NFGIAIAJ@?$AAv?$AAi@ 0000000140056b08     libucrt:lcidtoname_downlevel.obj
 0002:00009b10       ??_C@_15LMKNDMHN@?$AAh?$AAy@ 0000000140056b10     libucrt:lcidtoname_downlevel.obj
 0002:00009b18       ??_C@_15IJBHMCFL@?$AAa?$AAz@ 0000000140056b18     libucrt:lcidtoname_downlevel.obj
 0002:00009b20       ??_C@_15EKOFJABL@?$AAe?$AAu@ 0000000140056b20     libucrt:lcidtoname_downlevel.obj
 0002:00009b28       ??_C@_15BGHADCNK@?$AAm?$AAk@ 0000000140056b28     libucrt:lcidtoname_downlevel.obj
 0002:00009b30       ??_C@_15JDNICKHM@?$AAa?$AAf@ 0000000140056b30     libucrt:lcidtoname_downlevel.obj
 0002:00009b38       ??_C@_15KPJEDBKD@?$AAk?$AAa@ 0000000140056b38     libucrt:lcidtoname_downlevel.obj
 0002:00009b40       ??_C@_15PDNFFFEO@?$AAf?$AAo@ 0000000140056b40     libucrt:lcidtoname_downlevel.obj
 0002:00009b48       ??_C@_15OMLEGLOC@?$AAh?$AAi@ 0000000140056b48     libucrt:lcidtoname_downlevel.obj
 0002:00009b50       ??_C@_15IDNNENKK@?$AAm?$AAs@ 0000000140056b50     libucrt:lcidtoname_downlevel.obj
 0002:00009b58       ??_C@_15MACJNBMH@?$AAk?$AAk@ 0000000140056b58     libucrt:lcidtoname_downlevel.obj
 0002:00009b60       ??_C@_15DKDJEOND@?$AAk?$AAy@ 0000000140056b60     libucrt:lcidtoname_downlevel.obj
 0002:00009b68       ??_C@_15DFGDLJBG@?$AAs?$AAw@ 0000000140056b68     libucrt:lcidtoname_downlevel.obj
 0002:00009b70       ??_C@_15BBFAICNG@?$AAu?$AAz@ 0000000140056b70     libucrt:lcidtoname_downlevel.obj
 0002:00009b78       ??_C@_15DKNDCGEA@?$AAt?$AAt@ 0000000140056b78     libucrt:lcidtoname_downlevel.obj
 0002:00009b80       ??_C@_15MGIFMDPL@?$AAp?$AAa@ 0000000140056b80     libucrt:lcidtoname_downlevel.obj
 0002:00009b88       ??_C@_15HCNDBBA@?$AAg?$AAu@ 0000000140056b88     libucrt:lcidtoname_downlevel.obj
 0002:00009b90       ??_C@_15FNBEIBON@?$AAt?$AAa@ 0000000140056b90     libucrt:lcidtoname_downlevel.obj
 0002:00009b98       ??_C@_15NCHGBGLK@?$AAt?$AAe@ 0000000140056b98     libucrt:lcidtoname_downlevel.obj
 0002:00009ba0       ??_C@_15PHPHCBPF@?$AAk?$AAn@ 0000000140056ba0     libucrt:lcidtoname_downlevel.obj
 0002:00009ba8       ??_C@_15DLGBCKMP@?$AAm?$AAr@ 0000000140056ba8     libucrt:lcidtoname_downlevel.obj
 0002:00009bb0       ??_C@_15EABBLBFF@?$AAs?$AAa@ 0000000140056bb0     libucrt:lcidtoname_downlevel.obj
 0002:00009bb8       ??_C@_15CBKOMCOI@?$AAm?$AAn@ 0000000140056bb8     libucrt:lcidtoname_downlevel.obj
 0002:00009bc0       ??_C@_15CKDMCJAF@?$AAg?$AAl@ 0000000140056bc0     libucrt:lcidtoname_downlevel.obj
 0002:00009bc8       ??_C@_17CNJFBPG@?$AAk?$AAo?$AAk@ 0000000140056bc8     libucrt:lcidtoname_downlevel.obj
 0002:00009bd0       ??_C@_17FFBJICPL@?$AAs?$AAy?$AAr@ 0000000140056bd0     libucrt:lcidtoname_downlevel.obj
 0002:00009bd8       ??_C@_17KPNDCPAF@?$AAd?$AAi?$AAv@ 0000000140056bd8     libucrt:lcidtoname_downlevel.obj
 0002:00009be0       ??_C@_11LOCGONAA@@         0000000140056be0     libucrt:lcidtoname_downlevel.obj
 0002:00009be8       ??_C@_1M@OKAHONE@?$AAa?$AAr?$AA?9?$AAS?$AAA@ 0000000140056be8     libucrt:lcidtoname_downlevel.obj
 0002:00009bf8       ??_C@_1M@FFFIGIGK@?$AAb?$AAg?$AA?9?$AAB?$AAG@ 0000000140056bf8     libucrt:lcidtoname_downlevel.obj
 0002:00009c08       ??_C@_1M@BJNKEDC@?$AAc?$AAa?$AA?9?$AAE?$AAS@ 0000000140056c08     libucrt:lcidtoname_downlevel.obj
 0002:00009c18       ??_C@_1M@IJJHFJHA@?$AAc?$AAs?$AA?9?$AAC?$AAZ@ 0000000140056c18     libucrt:lcidtoname_downlevel.obj
 0002:00009c28       ??_C@_1M@CLPEOBGI@?$AAd?$AAa?$AA?9?$AAD?$AAK@ 0000000140056c28     libucrt:lcidtoname_downlevel.obj
 0002:00009c38       ??_C@_1M@MCMADGCB@?$AAd?$AAe?$AA?9?$AAD?$AAE@ 0000000140056c38     libucrt:lcidtoname_downlevel.obj
 0002:00009c48       ??_C@_1M@OOCKEMAM@?$AAe?$AAl?$AA?9?$AAG?$AAR@ 0000000140056c48     libucrt:lcidtoname_downlevel.obj
 0002:00009c58       ??_C@_1M@DDNJFGID@?$AAf?$AAi?$AA?9?$AAF?$AAI@ 0000000140056c58     libucrt:lcidtoname_downlevel.obj
 0002:00009c68       ??_C@_1M@GLIPPMAC@?$AAf?$AAr?$AA?9?$AAF?$AAR@ 0000000140056c68     libucrt:lcidtoname_downlevel.obj
 0002:00009c78       ??_C@_1M@GFMCHPE@?$AAh?$AAe?$AA?9?$AAI?$AAL@ 0000000140056c78     libucrt:lcidtoname_downlevel.obj
 0002:00009c88       ??_C@_1M@MHLPGNKM@?$AAh?$AAu?$AA?9?$AAH?$AAU@ 0000000140056c88     libucrt:lcidtoname_downlevel.obj
 0002:00009c98       ??_C@_1M@LPDDNNPN@?$AAi?$AAs?$AA?9?$AAI?$AAS@ 0000000140056c98     libucrt:lcidtoname_downlevel.obj
 0002:00009ca8       ??_C@_1M@MADIPODN@?$AAi?$AAt?$AA?9?$AAI?$AAT@ 0000000140056ca8     libucrt:lcidtoname_downlevel.obj
 0002:00009cb8       ??_C@_1M@IHBJJGG@?$AAn?$AAl?$AA?9?$AAN?$AAL@ 0000000140056cb8     libucrt:lcidtoname_downlevel.obj
 0002:00009cc8       ??_C@_1M@EANAGDL@?$AAn?$AAb?$AA?9?$AAN?$AAO@ 0000000140056cc8     libucrt:lcidtoname_downlevel.obj
 0002:00009cd8       ??_C@_1M@NEIEMEGP@?$AAp?$AAl?$AA?9?$AAP?$AAL@ 0000000140056cd8     libucrt:lcidtoname_downlevel.obj
 0002:00009ce8       ??_C@_1M@BOCFIGEP@?$AAp?$AAt?$AA?9?$AAB?$AAR@ 0000000140056ce8     libucrt:lcidtoname_downlevel.obj
 0002:00009cf8       ??_C@_1M@IMPFOPBG@?$AAr?$AAo?$AA?9?$AAR?$AAO@ 0000000140056cf8     libucrt:lcidtoname_downlevel.obj
 0002:00009d08       ??_C@_1M@IDNNEJMM@?$AAr?$AAu?$AA?9?$AAR?$AAU@ 0000000140056d08     libucrt:lcidtoname_downlevel.obj
 0002:00009d18       ??_C@_1M@LILEEOGM@?$AAh?$AAr?$AA?9?$AAH?$AAR@ 0000000140056d18     libucrt:lcidtoname_downlevel.obj
 0002:00009d28       ??_C@_1M@FKIFEHPB@?$AAs?$AAk?$AA?9?$AAS?$AAK@ 0000000140056d28     libucrt:lcidtoname_downlevel.obj
 0002:00009d38       ??_C@_1M@LJMAMNPJ@?$AAs?$AAq?$AA?9?$AAA?$AAL@ 0000000140056d38     libucrt:lcidtoname_downlevel.obj
 0002:00009d48       ??_C@_1M@GIAKDKJK@?$AAs?$AAv?$AA?9?$AAS?$AAE@ 0000000140056d48     libucrt:lcidtoname_downlevel.obj
 0002:00009d58       ??_C@_1M@MKJKIKCL@?$AAt?$AAh?$AA?9?$AAT?$AAH@ 0000000140056d58     libucrt:lcidtoname_downlevel.obj
 0002:00009d68       ??_C@_1M@MFLCCMPB@?$AAt?$AAr?$AA?9?$AAT?$AAR@ 0000000140056d68     libucrt:lcidtoname_downlevel.obj
 0002:00009d78       ??_C@_1M@OIJHDKJN@?$AAu?$AAr?$AA?9?$AAP?$AAK@ 0000000140056d78     libucrt:lcidtoname_downlevel.obj
 0002:00009d88       ??_C@_1M@LHIPCIEK@?$AAi?$AAd?$AA?9?$AAI?$AAD@ 0000000140056d88     libucrt:lcidtoname_downlevel.obj
 0002:00009d98       ??_C@_1M@MFMOBGI@?$AAu?$AAk?$AA?9?$AAU?$AAA@ 0000000140056d98     libucrt:lcidtoname_downlevel.obj
 0002:00009da8       ??_C@_1M@OBGLJIPL@?$AAb?$AAe?$AA?9?$AAB?$AAY@ 0000000140056da8     libucrt:lcidtoname_downlevel.obj
 0002:00009db8       ??_C@_1M@BCFAJEAD@?$AAs?$AAl?$AA?9?$AAS?$AAI@ 0000000140056db8     libucrt:lcidtoname_downlevel.obj
 0002:00009dc8       ??_C@_1M@FKFFEDDN@?$AAe?$AAt?$AA?9?$AAE?$AAE@ 0000000140056dc8     libucrt:lcidtoname_downlevel.obj
 0002:00009dd8       ??_C@_1M@KGKKAACI@?$AAl?$AAv?$AA?9?$AAL?$AAV@ 0000000140056dd8     libucrt:lcidtoname_downlevel.obj
 0002:00009de8       ??_C@_1M@IFGBIJO@?$AAl?$AAt?$AA?9?$AAL?$AAT@ 0000000140056de8     libucrt:lcidtoname_downlevel.obj
 0002:00009df8       ??_C@_1M@FGEAHEDM@?$AAf?$AAa?$AA?9?$AAI?$AAR@ 0000000140056df8     libucrt:lcidtoname_downlevel.obj
 0002:00009e08       ??_C@_1M@KBMAIBFN@?$AAv?$AAi?$AA?9?$AAV?$AAN@ 0000000140056e08     libucrt:lcidtoname_downlevel.obj
 0002:00009e18       ??_C@_1M@GPCBKDJK@?$AAh?$AAy?$AA?9?$AAA?$AAM@ 0000000140056e18     libucrt:lcidtoname_downlevel.obj
 0002:00009e28       ??_C@_1BG@BECMDDJB@?$AAa?$AAz?$AA?9?$AAA?$AAZ?$AA?9?$AAL?$AAa?$AAt?$AAn@ 0000000140056e28     libucrt:lcidtoname_downlevel.obj
 0002:00009e40       ??_C@_1M@MAOFCAEA@?$AAe?$AAu?$AA?9?$AAE?$AAS@ 0000000140056e40     libucrt:lcidtoname_downlevel.obj
 0002:00009e50       ??_C@_1M@IGHABKPI@?$AAm?$AAk?$AA?9?$AAM?$AAK@ 0000000140056e50     libucrt:lcidtoname_downlevel.obj
 0002:00009e60       ??_C@_1M@IAIGNEJG@?$AAt?$AAn?$AA?9?$AAZ?$AAA@ 0000000140056e60     libucrt:lcidtoname_downlevel.obj
 0002:00009e70       ??_C@_1M@IIJCOJFA@?$AAx?$AAh?$AA?9?$AAZ?$AAA@ 0000000140056e70     libucrt:lcidtoname_downlevel.obj
 0002:00009e80       ??_C@_1M@LGPJHNJH@?$AAz?$AAu?$AA?9?$AAZ?$AAA@ 0000000140056e80     libucrt:lcidtoname_downlevel.obj
 0002:00009e90       ??_C@_1M@HOKAOIO@?$AAa?$AAf?$AA?9?$AAZ?$AAA@ 0000000140056e90     libucrt:lcidtoname_downlevel.obj
 0002:00009ea0       ??_C@_1M@DPCLHLIE@?$AAk?$AAa?$AA?9?$AAG?$AAE@ 0000000140056ea0     libucrt:lcidtoname_downlevel.obj
 0002:00009eb0       ??_C@_1M@BLKMHJBI@?$AAf?$AAo?$AA?9?$AAF?$AAO@ 0000000140056eb0     libucrt:lcidtoname_downlevel.obj
 0002:00009ec0       ??_C@_1M@LGGJAPPB@?$AAh?$AAi?$AA?9?$AAI?$AAN@ 0000000140056ec0     libucrt:lcidtoname_downlevel.obj
 0002:00009ed0       ??_C@_1M@FIKPIHFE@?$AAm?$AAt?$AA?9?$AAM?$AAT@ 0000000140056ed0     libucrt:lcidtoname_downlevel.obj
 0002:00009ee0       ??_C@_1M@HEGGPBFA@?$AAs?$AAe?$AA?9?$AAN?$AAO@ 0000000140056ee0     libucrt:lcidtoname_downlevel.obj
 0002:00009ef0       ??_C@_1M@EIBJEEPA@?$AAm?$AAs?$AA?9?$AAM?$AAY@ 0000000140056ef0     libucrt:lcidtoname_downlevel.obj
 0002:00009f00       ??_C@_1M@FHLBGMPP@?$AAk?$AAk?$AA?9?$AAK?$AAZ@ 0000000140056f00     libucrt:lcidtoname_downlevel.obj
 0002:00009f10       ??_C@_1M@NGJJLCGI@?$AAk?$AAy?$AA?9?$AAK?$AAG@ 0000000140056f10     libucrt:lcidtoname_downlevel.obj
 0002:00009f20       ??_C@_1M@GIENNBFC@?$AAs?$AAw?$AA?9?$AAK?$AAE@ 0000000140056f20     libucrt:lcidtoname_downlevel.obj
 0002:00009f30       ??_C@_1BG@NDGMJIMJ@?$AAu?$AAz?$AA?9?$AAU?$AAZ?$AA?9?$AAL?$AAa?$AAt?$AAn@ 0000000140056f30     libucrt:lcidtoname_downlevel.obj
 0002:00009f48       ??_C@_1M@IDCCIHBC@?$AAt?$AAt?$AA?9?$AAR?$AAU@ 0000000140056f48     libucrt:lcidtoname_downlevel.obj
 0002:00009f58       ??_C@_1M@LOICPMOJ@?$AAb?$AAn?$AA?9?$AAI?$AAN@ 0000000140056f58     libucrt:lcidtoname_downlevel.obj
 0002:00009f68       ??_C@_1M@KPKKNEAH@?$AAp?$AAa?$AA?9?$AAI?$AAN@ 0000000140056f68     libucrt:lcidtoname_downlevel.obj
 0002:00009f78       ??_C@_1M@PJGPPBOG@?$AAg?$AAu?$AA?9?$AAI?$AAN@ 0000000140056f78     libucrt:lcidtoname_downlevel.obj
 0002:00009f88       ??_C@_1M@KMKMOPHI@?$AAt?$AAa?$AA?9?$AAI?$AAN@ 0000000140056f88     libucrt:lcidtoname_downlevel.obj
 0002:00009f98       ??_C@_1M@KFEHEPAC@?$AAt?$AAe?$AA?9?$AAI?$AAN@ 0000000140056f98     libucrt:lcidtoname_downlevel.obj
 0002:00009fa8       ??_C@_1M@CDCLMGHI@?$AAk?$AAn?$AA?9?$AAI?$AAN@ 0000000140056fa8     libucrt:lcidtoname_downlevel.obj
 0002:00009fb8       ??_C@_1M@MIODLDKF@?$AAm?$AAl?$AA?9?$AAI?$AAN@ 0000000140056fb8     libucrt:lcidtoname_downlevel.obj
 0002:00009fc8       ??_C@_1M@PBIEACPO@?$AAm?$AAr?$AA?9?$AAI?$AAN@ 0000000140056fc8     libucrt:lcidtoname_downlevel.obj
 0002:00009fd8       ??_C@_1M@NIDEAGPH@?$AAs?$AAa?$AA?9?$AAI?$AAN@ 0000000140056fd8     libucrt:lcidtoname_downlevel.obj
 0002:00009fe8       ??_C@_1M@FHIHCBIO@?$AAm?$AAn?$AA?9?$AAM?$AAN@ 0000000140056fe8     libucrt:lcidtoname_downlevel.obj
 0002:00009ff8       ??_C@_1M@JAIJPENP@?$AAc?$AAy?$AA?9?$AAG?$AAB@ 0000000140056ff8     libucrt:lcidtoname_downlevel.obj
 0002:0000a008       ??_C@_1M@PHGFBEPN@?$AAg?$AAl?$AA?9?$AAE?$AAS@ 0000000140057008     libucrt:lcidtoname_downlevel.obj
 0002:0000a018       ??_C@_1O@KPIPDNCP@?$AAk?$AAo?$AAk?$AA?9?$AAI?$AAN@ 0000000140057018     libucrt:lcidtoname_downlevel.obj
 0002:0000a028       ??_C@_1O@KNHJLDJA@?$AAs?$AAy?$AAr?$AA?9?$AAS?$AAY@ 0000000140057028     libucrt:lcidtoname_downlevel.obj
 0002:0000a038       ??_C@_1O@MKEKBLAH@?$AAd?$AAi?$AAv?$AA?9?$AAM?$AAV@ 0000000140057038     libucrt:lcidtoname_downlevel.obj
 0002:0000a048       ??_C@_1O@OHDCKDDF@?$AAq?$AAu?$AAz?$AA?9?$AAB?$AAO@ 0000000140057048     libucrt:lcidtoname_downlevel.obj
 0002:0000a058       ??_C@_1M@LEPJNLFD@?$AAn?$AAs?$AA?9?$AAZ?$AAA@ 0000000140057058     libucrt:lcidtoname_downlevel.obj
 0002:0000a068       ??_C@_1M@OMLEIIJB@?$AAm?$AAi?$AA?9?$AAN?$AAZ@ 0000000140057068     libucrt:lcidtoname_downlevel.obj
 0002:0000a078       ??_C@_1M@PMPEAILG@?$AAa?$AAr?$AA?9?$AAI?$AAQ@ 0000000140057078     libucrt:lcidtoname_downlevel.obj
 0002:0000a088       ??_C@_1M@CNKPNOEE@?$AAd?$AAe?$AA?9?$AAC?$AAH@ 0000000140057088     libucrt:lcidtoname_downlevel.obj
 0002:0000a098       ??_C@_1M@LKMGMLKO@?$AAe?$AAn?$AA?9?$AAG?$AAB@ 0000000140057098     libucrt:lcidtoname_downlevel.obj
 0002:0000a0a8       ??_C@_1M@PGKJFFGL@?$AAe?$AAs?$AA?9?$AAM?$AAX@ 00000001400570a8     libucrt:lcidtoname_downlevel.obj
 0002:0000a0b8       ??_C@_1M@DNNANBDC@?$AAf?$AAr?$AA?9?$AAB?$AAE@ 00000001400570b8     libucrt:lcidtoname_downlevel.obj
 0002:0000a0c8       ??_C@_1M@HLGMDFHM@?$AAi?$AAt?$AA?9?$AAC?$AAH@ 00000001400570c8     libucrt:lcidtoname_downlevel.obj
 0002:0000a0d8       ??_C@_1M@CLLBGJH@?$AAn?$AAl?$AA?9?$AAB?$AAE@ 00000001400570d8     libucrt:lcidtoname_downlevel.obj
 0002:0000a0e8       ??_C@_1M@BODBOGLF@?$AAn?$AAn?$AA?9?$AAN?$AAO@ 00000001400570e8     libucrt:lcidtoname_downlevel.obj
 0002:0000a0f8       ??_C@_1M@HFFAHKAD@?$AAp?$AAt?$AA?9?$AAP?$AAT@ 00000001400570f8     libucrt:lcidtoname_downlevel.obj
 0002:0000a108       ??_C@_1BG@LNOAKHIE@?$AAs?$AAr?$AA?9?$AAS?$AAP?$AA?9?$AAL?$AAa?$AAt?$AAn@ 0000000140057108     libucrt:lcidtoname_downlevel.obj
 0002:0000a120       ??_C@_1M@HBMHBGAK@?$AAs?$AAv?$AA?9?$AAF?$AAI@ 0000000140057120     libucrt:lcidtoname_downlevel.obj
 0002:0000a130       ??_C@_1BG@DGCJGJBE@?$AAa?$AAz?$AA?9?$AAA?$AAZ?$AA?9?$AAC?$AAy?$AAr?$AAl@ 0000000140057130     libucrt:lcidtoname_downlevel.obj
 0002:0000a148       ??_C@_1M@KEJDAAHB@?$AAs?$AAe?$AA?9?$AAS?$AAE@ 0000000140057148     libucrt:lcidtoname_downlevel.obj
 0002:0000a158       ??_C@_1M@HEIBJJAD@?$AAm?$AAs?$AA?9?$AAB?$AAN@ 0000000140057158     libucrt:lcidtoname_downlevel.obj
 0002:0000a168       ??_C@_1BG@PBGJMCEM@?$AAu?$AAz?$AA?9?$AAU?$AAZ?$AA?9?$AAC?$AAy?$AAr?$AAl@ 0000000140057168     libucrt:lcidtoname_downlevel.obj
 0002:0000a180       ??_C@_1O@LAOBCMDF@?$AAq?$AAu?$AAz?$AA?9?$AAE?$AAC@ 0000000140057180     libucrt:lcidtoname_downlevel.obj
 0002:0000a190       ??_C@_1M@POEEMAIO@?$AAa?$AAr?$AA?9?$AAE?$AAG@ 0000000140057190     libucrt:lcidtoname_downlevel.obj
 0002:0000a1a0       ??_C@_1M@EFAKDEDL@?$AAz?$AAh?$AA?9?$AAH?$AAK@ 00000001400571a0     libucrt:lcidtoname_downlevel.obj
 0002:0000a1b0       ??_C@_1M@HKKIJHGI@?$AAd?$AAe?$AA?9?$AAA?$AAT@ 00000001400571b0     libucrt:lcidtoname_downlevel.obj
 0002:0000a1c0       ??_C@_1M@KBFBEHJF@?$AAe?$AAn?$AA?9?$AAA?$AAU@ 00000001400571c0     libucrt:lcidtoname_downlevel.obj
 0002:0000a1d0       ??_C@_1M@MNPLFAAH@?$AAe?$AAs?$AA?9?$AAE?$AAS@ 00000001400571d0     libucrt:lcidtoname_downlevel.obj
 0002:0000a1e0       ??_C@_1M@HJOOJFMA@?$AAf?$AAr?$AA?9?$AAC?$AAA@ 00000001400571e0     libucrt:lcidtoname_downlevel.obj
 0002:0000a1f0       ??_C@_1BG@JPOFPNAB@?$AAs?$AAr?$AA?9?$AAS?$AAP?$AA?9?$AAC?$AAy?$AAr?$AAl@ 00000001400571f0     libucrt:lcidtoname_downlevel.obj
 0002:0000a208       ??_C@_1M@LNFOCMOB@?$AAs?$AAe?$AA?9?$AAF?$AAI@ 0000000140057208     libucrt:lcidtoname_downlevel.obj
 0002:0000a218       ??_C@_1O@MGJBOAMB@?$AAq?$AAu?$AAz?$AA?9?$AAP?$AAE@ 0000000140057218     libucrt:lcidtoname_downlevel.obj
 0002:0000a228       ??_C@_1M@GJINLBOK@?$AAa?$AAr?$AA?9?$AAL?$AAY@ 0000000140057228     libucrt:lcidtoname_downlevel.obj
 0002:0000a238       ??_C@_1M@GGMNHJNL@?$AAz?$AAh?$AA?9?$AAS?$AAG@ 0000000140057238     libucrt:lcidtoname_downlevel.obj
 0002:0000a248       ??_C@_1M@HOIKODND@?$AAd?$AAe?$AA?9?$AAL?$AAU@ 0000000140057248     libucrt:lcidtoname_downlevel.obj
 0002:0000a258       ??_C@_1M@DDOCCGFG@?$AAe?$AAn?$AA?9?$AAC?$AAA@ 0000000140057258     libucrt:lcidtoname_downlevel.obj
 0002:0000a268       ??_C@_1M@BNOEMJLF@?$AAe?$AAs?$AA?9?$AAG?$AAT@ 0000000140057268     libucrt:lcidtoname_downlevel.obj
 0002:0000a278       ??_C@_1M@EOGNKEK@?$AAf?$AAr?$AA?9?$AAC?$AAH@ 0000000140057278     libucrt:lcidtoname_downlevel.obj
 0002:0000a288       ??_C@_1M@FLIDJFHL@?$AAh?$AAr?$AA?9?$AAB?$AAA@ 0000000140057288     libucrt:lcidtoname_downlevel.obj
 0002:0000a298       ??_C@_1O@FMCELNAJ@?$AAs?$AAm?$AAj?$AA?9?$AAN?$AAO@ 0000000140057298     libucrt:lcidtoname_downlevel.obj
 0002:0000a2a8       ??_C@_1M@JHGLJMGJ@?$AAa?$AAr?$AA?9?$AAD?$AAZ@ 00000001400572a8     libucrt:lcidtoname_downlevel.obj
 0002:0000a2b8       ??_C@_1M@JKKFDCNP@?$AAz?$AAh?$AA?9?$AAM?$AAO@ 00000001400572b8     libucrt:lcidtoname_downlevel.obj
 0002:0000a2c8       ??_C@_1M@GEEFALPE@?$AAd?$AAe?$AA?9?$AAL?$AAI@ 00000001400572c8     libucrt:lcidtoname_downlevel.obj
 0002:0000a2d8       ??_C@_1M@IGEOFBG@?$AAe?$AAn?$AA?9?$AAN?$AAZ@ 00000001400572d8     libucrt:lcidtoname_downlevel.obj
 0002:0000a2e8       ??_C@_1M@KDBONEHP@?$AAe?$AAs?$AA?9?$AAC?$AAR@ 00000001400572e8     libucrt:lcidtoname_downlevel.obj
 0002:0000a2f8       ??_C@_1M@FHMDOHNN@?$AAf?$AAr?$AA?9?$AAL?$AAU@ 00000001400572f8     libucrt:lcidtoname_downlevel.obj
 0002:0000a308       ??_C@_1BG@NFKKMAFG@?$AAb?$AAs?$AA?9?$AAB?$AAA?$AA?9?$AAL?$AAa?$AAt?$AAn@ 0000000140057308     libucrt:lcidtoname_downlevel.obj
 0002:0000a320       ??_C@_1O@IMNBEMCI@?$AAs?$AAm?$AAj?$AA?9?$AAS?$AAE@ 0000000140057320     libucrt:lcidtoname_downlevel.obj
 0002:0000a330       ??_C@_1M@DHHMBNDP@?$AAa?$AAr?$AA?9?$AAM?$AAA@ 0000000140057330     libucrt:lcidtoname_downlevel.obj
 0002:0000a340       ??_C@_1M@BNBLJCGH@?$AAe?$AAn?$AA?9?$AAI?$AAE@ 0000000140057340     libucrt:lcidtoname_downlevel.obj
 0002:0000a350       ??_C@_1M@GEPAFMDL@?$AAe?$AAs?$AA?9?$AAP?$AAA@ 0000000140057350     libucrt:lcidtoname_downlevel.obj
 0002:0000a360       ??_C@_1M@OJONDMDL@?$AAf?$AAr?$AA?9?$AAM?$AAC@ 0000000140057360     libucrt:lcidtoname_downlevel.obj
 0002:0000a370       ??_C@_1BG@OBCNFJB@?$AAs?$AAr?$AA?9?$AAB?$AAA?$AA?9?$AAL?$AAa?$AAt?$AAn@ 0000000140057370     libucrt:lcidtoname_downlevel.obj
 0002:0000a388       ??_C@_1O@KEMEEGPO@?$AAs?$AAm?$AAa?$AA?9?$AAN?$AAO@ 0000000140057388     libucrt:lcidtoname_downlevel.obj
 0002:0000a398       ??_C@_1M@ELMGFODK@?$AAa?$AAr?$AA?9?$AAT?$AAN@ 0000000140057398     libucrt:lcidtoname_downlevel.obj
 0002:0000a3a8       ??_C@_1M@BHDLHFAF@?$AAe?$AAn?$AA?9?$AAZ?$AAA@ 00000001400573a8     libucrt:lcidtoname_downlevel.obj
 0002:0000a3b8       ??_C@_1M@BMGIGLIF@?$AAe?$AAs?$AA?9?$AAD?$AAO@ 00000001400573b8     libucrt:lcidtoname_downlevel.obj
 0002:0000a3c8       ??_C@_1BG@CMBHIPBE@?$AAs?$AAr?$AA?9?$AAB?$AAA?$AA?9?$AAC?$AAy?$AAr?$AAl@ 00000001400573c8     libucrt:lcidtoname_downlevel.obj
 0002:0000a3e0       ??_C@_1O@HEDBLHNP@?$AAs?$AAm?$AAa?$AA?9?$AAS?$AAE@ 00000001400573e0     libucrt:lcidtoname_downlevel.obj
 0002:0000a3f0       ??_C@_1M@DAGCADIM@?$AAa?$AAr?$AA?9?$AAO?$AAM@ 00000001400573f0     libucrt:lcidtoname_downlevel.obj
 0002:0000a400       ??_C@_1M@FODLMICG@?$AAe?$AAn?$AA?9?$AAJ?$AAM@ 0000000140057400     libucrt:lcidtoname_downlevel.obj
 0002:0000a410       ??_C@_1M@DNMLCIHB@?$AAe?$AAs?$AA?9?$AAV?$AAE@ 0000000140057410     libucrt:lcidtoname_downlevel.obj
 0002:0000a420       ??_C@_1O@EOKHMKJK@?$AAs?$AAm?$AAs?$AA?9?$AAF?$AAI@ 0000000140057420     libucrt:lcidtoname_downlevel.obj
 0002:0000a430       ??_C@_1M@CAFJMKOF@?$AAa?$AAr?$AA?9?$AAY?$AAE@ 0000000140057430     libucrt:lcidtoname_downlevel.obj
 0002:0000a440       ??_C@_1M@CBFHIJLI@?$AAe?$AAn?$AA?9?$AAC?$AAB@ 0000000140057440     libucrt:lcidtoname_downlevel.obj
 0002:0000a450       ??_C@_1M@BGNFLDN@?$AAe?$AAs?$AA?9?$AAC?$AAO@ 0000000140057450     libucrt:lcidtoname_downlevel.obj
 0002:0000a460       ??_C@_1O@JMPHMAMC@?$AAs?$AAm?$AAn?$AA?9?$AAF?$AAI@ 0000000140057460     libucrt:lcidtoname_downlevel.obj
 0002:0000a470       ??_C@_1M@JLANABKE@?$AAa?$AAr?$AA?9?$AAS?$AAY@ 0000000140057470     libucrt:lcidtoname_downlevel.obj
 0002:0000a480       ??_C@_1M@HPKGCFGN@?$AAe?$AAn?$AA?9?$AAB?$AAZ@ 0000000140057480     libucrt:lcidtoname_downlevel.obj
 0002:0000a490       ??_C@_1M@OLJCMLGM@?$AAe?$AAs?$AA?9?$AAP?$AAE@ 0000000140057490     libucrt:lcidtoname_downlevel.obj
 0002:0000a4a0       ??_C@_1M@MKKGFKLE@?$AAa?$AAr?$AA?9?$AAJ?$AAO@ 00000001400574a0     libucrt:lcidtoname_downlevel.obj
 0002:0000a4b0       ??_C@_1M@EKPGLDNI@?$AAe?$AAn?$AA?9?$AAT?$AAT@ 00000001400574b0     libucrt:lcidtoname_downlevel.obj
 0002:0000a4c0       ??_C@_1M@OONGHFHE@?$AAe?$AAs?$AA?9?$AAA?$AAR@ 00000001400574c0     libucrt:lcidtoname_downlevel.obj
 0002:0000a4d0       ??_C@_1M@OOJFGBHE@?$AAa?$AAr?$AA?9?$AAL?$AAB@ 00000001400574d0     libucrt:lcidtoname_downlevel.obj
 0002:0000a4e0       ??_C@_1M@GCEJHNEG@?$AAe?$AAn?$AA?9?$AAZ?$AAW@ 00000001400574e0     libucrt:lcidtoname_downlevel.obj
 0002:0000a4f0       ??_C@_1M@JNOCAHJI@?$AAe?$AAs?$AA?9?$AAE?$AAC@ 00000001400574f0     libucrt:lcidtoname_downlevel.obj
 0002:0000a500       ??_C@_1M@JEFHPGGB@?$AAa?$AAr?$AA?9?$AAK?$AAW@ 0000000140057500     libucrt:lcidtoname_downlevel.obj
 0002:0000a510       ??_C@_1M@MLKIBJOJ@?$AAe?$AAn?$AA?9?$AAP?$AAH@ 0000000140057510     libucrt:lcidtoname_downlevel.obj
 0002:0000a520       ??_C@_1M@BDNIPEND@?$AAe?$AAs?$AA?9?$AAC?$AAL@ 0000000140057520     libucrt:lcidtoname_downlevel.obj
 0002:0000a530       ??_C@_1M@MPNMEKBD@?$AAa?$AAr?$AA?9?$AAA?$AAE@ 0000000140057530     libucrt:lcidtoname_downlevel.obj
 0002:0000a540       ??_C@_1M@KBJALCPI@?$AAe?$AAs?$AA?9?$AAU?$AAY@ 0000000140057540     libucrt:lcidtoname_downlevel.obj
 0002:0000a550       ??_C@_1M@LLCCOAGA@?$AAa?$AAr?$AA?9?$AAB?$AAH@ 0000000140057550     libucrt:lcidtoname_downlevel.obj
 0002:0000a560       ??_C@_1M@PBFNCDEL@?$AAe?$AAs?$AA?9?$AAP?$AAY@ 0000000140057560     libucrt:lcidtoname_downlevel.obj
 0002:0000a570       ??_C@_1M@EDGINPNP@?$AAa?$AAr?$AA?9?$AAQ?$AAA@ 0000000140057570     libucrt:lcidtoname_downlevel.obj
 0002:0000a580       ??_C@_1M@MKDBIIJI@?$AAe?$AAs?$AA?9?$AAB?$AAO@ 0000000140057580     libucrt:lcidtoname_downlevel.obj
 0002:0000a590       ??_C@_1M@CPKKEBLD@?$AAe?$AAs?$AA?9?$AAS?$AAV@ 0000000140057590     libucrt:lcidtoname_downlevel.obj
 0002:0000a5a0       ??_C@_1M@NDBGMMJL@?$AAe?$AAs?$AA?9?$AAH?$AAN@ 00000001400575a0     libucrt:lcidtoname_downlevel.obj
 0002:0000a5b0       ??_C@_1M@JIJIBHDP@?$AAe?$AAs?$AA?9?$AAN?$AAI@ 00000001400575b0     libucrt:lcidtoname_downlevel.obj
 0002:0000a5c0       ??_C@_1M@CGFMKEEK@?$AAe?$AAs?$AA?9?$AAP?$AAR@ 00000001400575c0     libucrt:lcidtoname_downlevel.obj
 0002:0000a5d0       ??_C@_1O@ICJHKIIK@?$AAz?$AAh?$AA?9?$AAC?$AAH?$AAT@ 00000001400575d0     libucrt:lcidtoname_downlevel.obj
 0002:0000a5e0       ??_C@_15CLNEJCE@?$AAs?$AAr@ 00000001400575e0     libucrt:lcidtoname_downlevel.obj
 0002:0000b430       ??_C@_1M@KAHEKEIG@?$AAa?$AAf?$AA?9?$AAz?$AAa@ 0000000140058430     libucrt:lcidtoname_downlevel.obj
 0002:0000b440       ??_C@_1M@GIECOABL@?$AAa?$AAr?$AA?9?$AAa?$AAe@ 0000000140058440     libucrt:lcidtoname_downlevel.obj
 0002:0000b450       ??_C@_1M@BMLMEKGI@?$AAa?$AAr?$AA?9?$AAb?$AAh@ 0000000140058450     libucrt:lcidtoname_downlevel.obj
 0002:0000b460       ??_C@_1M@DAPFDGGB@?$AAa?$AAr?$AA?9?$AAd?$AAz@ 0000000140058460     libucrt:lcidtoname_downlevel.obj
 0002:0000b470       ??_C@_1M@FJNKGKIG@?$AAa?$AAr?$AA?9?$AAe?$AAg@ 0000000140058470     libucrt:lcidtoname_downlevel.obj
 0002:0000b480       ??_C@_1M@FLGKKCLO@?$AAa?$AAr?$AA?9?$AAi?$AAq@ 0000000140058480     libucrt:lcidtoname_downlevel.obj
 0002:0000b490       ??_C@_1M@GNDIPALM@?$AAa?$AAr?$AA?9?$AAj?$AAo@ 0000000140058490     libucrt:lcidtoname_downlevel.obj
 0002:0000b4a0       ??_C@_1M@DDMJFMGJ@?$AAa?$AAr?$AA?9?$AAk?$AAw@ 00000001400584a0     libucrt:lcidtoname_downlevel.obj
 0002:0000b4b0       ??_C@_1M@EJALMLHM@?$AAa?$AAr?$AA?9?$AAl?$AAb@ 00000001400584b0     libucrt:lcidtoname_downlevel.obj
 0002:0000b4c0       ??_C@_1M@MOBDBLOC@?$AAa?$AAr?$AA?9?$AAl?$AAy@ 00000001400584c0     libucrt:lcidtoname_downlevel.obj
 0002:0000b4d0       ??_C@_1M@JAOCLHDH@?$AAa?$AAr?$AA?9?$AAm?$AAa@ 00000001400584d0     libucrt:lcidtoname_downlevel.obj
 0002:0000b4e0       ??_C@_1M@JHPMKJIE@?$AAa?$AAr?$AA?9?$AAo?$AAm@ 00000001400584e0     libucrt:lcidtoname_downlevel.obj
 0002:0000b4f0       ??_C@_1M@OEPGHFNH@?$AAa?$AAr?$AA?9?$AAq?$AAa@ 00000001400584f0     libucrt:lcidtoname_downlevel.obj
 0002:0000b500       ??_C@_1M@KJDONENM@?$AAa?$AAr?$AA?9?$AAs?$AAa@ 0000000140058500     libucrt:lcidtoname_downlevel.obj
 0002:0000b510       ??_C@_1M@DMJDKLKM@?$AAa?$AAr?$AA?9?$AAs?$AAy@ 0000000140058510     libucrt:lcidtoname_downlevel.obj
 0002:0000b520       ??_C@_1M@OMFIPEDC@?$AAa?$AAr?$AA?9?$AAt?$AAn@ 0000000140058520     libucrt:lcidtoname_downlevel.obj
 0002:0000b530       ??_C@_1M@IHMHGAON@?$AAa?$AAr?$AA?9?$AAy?$AAe@ 0000000140058530     libucrt:lcidtoname_downlevel.obj
 0002:0000b540       ??_C@_1BG@KDCPGJGB@?$AAa?$AAz?$AA?9?$AAa?$AAz?$AA?9?$AAc?$AAy?$AAr?$AAl@ 0000000140058540     libucrt:lcidtoname_downlevel.obj
 0002:0000b558       ??_C@_1BG@IBCKDDOE@?$AAa?$AAz?$AA?9?$AAa?$AAz?$AA?9?$AAl?$AAa?$AAt?$AAn@ 0000000140058558     libucrt:lcidtoname_downlevel.obj
 0002:0000b570       ??_C@_1M@EGPFDCPD@?$AAb?$AAe?$AA?9?$AAb?$AAy@ 0000000140058570     libucrt:lcidtoname_downlevel.obj
 0002:0000b580       ??_C@_1M@PCMGMCGC@?$AAb?$AAg?$AA?9?$AAb?$AAg@ 0000000140058580     libucrt:lcidtoname_downlevel.obj
 0002:0000b590       ??_C@_1M@BJBMFGOB@?$AAb?$AAn?$AA?9?$AAi?$AAn@ 0000000140058590     libucrt:lcidtoname_downlevel.obj
 0002:0000b5a0       ??_C@_1BG@EAKMMACD@?$AAb?$AAs?$AA?9?$AAb?$AAa?$AA?9?$AAl?$AAa?$AAt?$AAn@ 00000001400585a0     libucrt:lcidtoname_downlevel.obj
 0002:0000b5b8       ??_C@_1M@KGADAODK@?$AAc?$AAa?$AA?9?$AAe?$AAs@ 00000001400585b8     libucrt:lcidtoname_downlevel.obj
 0002:0000b5c8       ??_C@_1M@COAJPDHI@?$AAc?$AAs?$AA?9?$AAc?$AAz@ 00000001400585c8     libucrt:lcidtoname_downlevel.obj
 0002:0000b5d8       ??_C@_1M@DHBHFONH@?$AAc?$AAy?$AA?9?$AAg?$AAb@ 00000001400585d8     libucrt:lcidtoname_downlevel.obj
 0002:0000b5e8       ??_C@_1M@IMGKELGA@?$AAd?$AAa?$AA?9?$AAd?$AAk@ 00000001400585e8     libucrt:lcidtoname_downlevel.obj
 0002:0000b5f8       ??_C@_1M@NNDGDNGA@?$AAd?$AAe?$AA?9?$AAa?$AAt@ 00000001400585f8     libucrt:lcidtoname_downlevel.obj
 0002:0000b608       ??_C@_1M@IKDBHEEM@?$AAd?$AAe?$AA?9?$AAc?$AAh@ 0000000140058608     libucrt:lcidtoname_downlevel.obj
 0002:0000b618       ??_C@_1M@GFFOJMCJ@?$AAd?$AAe?$AA?9?$AAd?$AAe@ 0000000140058618     libucrt:lcidtoname_downlevel.obj
 0002:0000b628       ??_C@_1M@MDNLKBPM@?$AAd?$AAe?$AA?9?$AAl?$AAi@ 0000000140058628     libucrt:lcidtoname_downlevel.obj
 0002:0000b638       ??_C@_1M@NJBEEJNL@?$AAd?$AAe?$AA?9?$AAl?$AAu@ 0000000140058638     libucrt:lcidtoname_downlevel.obj
 0002:0000b648       ??_C@_1O@GNNELBAP@?$AAd?$AAi?$AAv?$AA?9?$AAm?$AAv@ 0000000140058648     libucrt:lcidtoname_downlevel.obj
 0002:0000b658       ??_C@_1M@EJLEOGAE@?$AAe?$AAl?$AA?9?$AAg?$AAr@ 0000000140058658     libucrt:lcidtoname_downlevel.obj
 0002:0000b668       ??_C@_1M@GMPONJN@?$AAe?$AAn?$AA?9?$AAa?$AAu@ 0000000140058668     libucrt:lcidtoname_downlevel.obj
 0002:0000b678       ??_C@_1M@NIDIIPGF@?$AAe?$AAn?$AA?9?$AAb?$AAz@ 0000000140058678     libucrt:lcidtoname_downlevel.obj
 0002:0000b688       ??_C@_1M@JEHMIMFO@?$AAe?$AAn?$AA?9?$AAc?$AAa@ 0000000140058688     libucrt:lcidtoname_downlevel.obj
 0002:0000b698       ??_C@_1M@IGMJCDLA@?$AAe?$AAn?$AA?9?$AAc?$AAb@ 0000000140058698     libucrt:lcidtoname_downlevel.obj
 0002:0000b6a8       ??_C@_1M@BNFIGBKG@?$AAe?$AAn?$AA?9?$AAg?$AAb@ 00000001400586a8     libucrt:lcidtoname_downlevel.obj
 0002:0000b6b8       ??_C@_1M@LKIFDIGP@?$AAe?$AAn?$AA?9?$AAi?$AAe@ 00000001400586b8     libucrt:lcidtoname_downlevel.obj
 0002:0000b6c8       ??_C@_1M@PJKFGCCO@?$AAe?$AAn?$AA?9?$AAj?$AAm@ 00000001400586c8     libucrt:lcidtoname_downlevel.obj
 0002:0000b6d8       ??_C@_1M@KPPKEPBO@?$AAe?$AAn?$AA?9?$AAn?$AAz@ 00000001400586d8     libucrt:lcidtoname_downlevel.obj
 0002:0000b6e8       ??_C@_1M@GMDGLDOB@?$AAe?$AAn?$AA?9?$AAp?$AAh@ 00000001400586e8     libucrt:lcidtoname_downlevel.obj
 0002:0000b6f8       ??_C@_1M@ONGIBJNA@?$AAe?$AAn?$AA?9?$AAt?$AAt@ 00000001400586f8     libucrt:lcidtoname_downlevel.obj
 0002:0000b708       ??_C@_1M@LLODPCMM@?$AAe?$AAn?$AA?9?$AAu?$AAs@ 0000000140058708     libucrt:lcidtoname_downlevel.obj
 0002:0000b718       ??_C@_1M@LAKFNPAN@?$AAe?$AAn?$AA?9?$AAz?$AAa@ 0000000140058718     libucrt:lcidtoname_downlevel.obj
 0002:0000b728       ??_C@_1M@MFNHNHEO@?$AAe?$AAn?$AA?9?$AAz?$AAw@ 0000000140058728     libucrt:lcidtoname_downlevel.obj
 0002:0000b738       ??_C@_1M@EJEINPHM@?$AAe?$AAs?$AA?9?$AAa?$AAr@ 0000000140058738     libucrt:lcidtoname_downlevel.obj
 0002:0000b748       ??_C@_1M@GNKPCCJA@?$AAe?$AAs?$AA?9?$AAb?$AAo@ 0000000140058748     libucrt:lcidtoname_downlevel.obj
 0002:0000b758       ??_C@_1M@LEEGFONL@?$AAe?$AAs?$AA?9?$AAc?$AAl@ 0000000140058758     libucrt:lcidtoname_downlevel.obj
 0002:0000b768       ??_C@_1M@KGPDPBDF@?$AAe?$AAs?$AA?9?$AAc?$AAo@ 0000000140058768     libucrt:lcidtoname_downlevel.obj
 0002:0000b778       ??_C@_1M@EIAHOHH@?$AAe?$AAs?$AA?9?$AAc?$AAr@ 0000000140058778     libucrt:lcidtoname_downlevel.obj
 0002:0000b788       ??_C@_1M@LLPGMBIN@?$AAe?$AAs?$AA?9?$AAd?$AAo@ 0000000140058788     libucrt:lcidtoname_downlevel.obj
 0002:0000b798       ??_C@_1M@DKHMKNJA@?$AAe?$AAs?$AA?9?$AAe?$AAc@ 0000000140058798     libucrt:lcidtoname_downlevel.obj
 0002:0000b7a8       ??_C@_1M@GKGFPKAP@?$AAe?$AAs?$AA?9?$AAe?$AAs@ 00000001400587a8     libucrt:lcidtoname_downlevel.obj
 0002:0000b7b8       ??_C@_1M@LKHKGDLN@?$AAe?$AAs?$AA?9?$AAg?$AAt@ 00000001400587b8     libucrt:lcidtoname_downlevel.obj
 0002:0000b7c8       ??_C@_1M@HEIIGGJD@?$AAe?$AAs?$AA?9?$AAh?$AAn@ 00000001400587c8     libucrt:lcidtoname_downlevel.obj
 0002:0000b7d8       ??_C@_1M@FBDHPPGD@?$AAe?$AAs?$AA?9?$AAm?$AAx@ 00000001400587d8     libucrt:lcidtoname_downlevel.obj
 0002:0000b7e8       ??_C@_1M@DPAGLNDH@?$AAe?$AAs?$AA?9?$AAn?$AAi@ 00000001400587e8     libucrt:lcidtoname_downlevel.obj
 0002:0000b7f8       ??_C@_1M@MDGOPGDD@?$AAe?$AAs?$AA?9?$AAp?$AAa@ 00000001400587f8     libucrt:lcidtoname_downlevel.obj
 0002:0000b808       ??_C@_1M@EMAMGBGE@?$AAe?$AAs?$AA?9?$AAp?$AAe@ 0000000140058808     libucrt:lcidtoname_downlevel.obj
 0002:0000b818       ??_C@_1M@IBMCAOEC@?$AAe?$AAs?$AA?9?$AAp?$AAr@ 0000000140058818     libucrt:lcidtoname_downlevel.obj
 0002:0000b828       ??_C@_1M@FGMDIJED@?$AAe?$AAs?$AA?9?$AAp?$AAy@ 0000000140058828     libucrt:lcidtoname_downlevel.obj
 0002:0000b838       ??_C@_1M@IIDEOLLL@?$AAe?$AAs?$AA?9?$AAs?$AAv@ 0000000140058838     libucrt:lcidtoname_downlevel.obj
 0002:0000b848       ??_C@_1M@GAOBIPA@?$AAe?$AAs?$AA?9?$AAu?$AAy@ 0000000140058848     libucrt:lcidtoname_downlevel.obj
 0002:0000b858       ??_C@_1M@JKFFICHJ@?$AAe?$AAs?$AA?9?$AAv?$AAe@ 0000000140058858     libucrt:lcidtoname_downlevel.obj
 0002:0000b868       ??_C@_1M@PNMLOJDF@?$AAe?$AAt?$AA?9?$AAe?$AAe@ 0000000140058868     libucrt:lcidtoname_downlevel.obj
 0002:0000b878       ??_C@_1M@GHHLIKEI@?$AAe?$AAu?$AA?9?$AAe?$AAs@ 0000000140058878     libucrt:lcidtoname_downlevel.obj
 0002:0000b888       ??_C@_1M@PBNONODE@?$AAf?$AAa?$AA?9?$AAi?$AAr@ 0000000140058888     libucrt:lcidtoname_downlevel.obj
 0002:0000b898       ??_C@_1M@JEEHPMIL@?$AAf?$AAi?$AA?9?$AAf?$AAi@ 0000000140058898     libucrt:lcidtoname_downlevel.obj
 0002:0000b8a8       ??_C@_1M@LMDCNDBA@?$AAf?$AAo?$AA?9?$AAf?$AAo@ 00000001400588a8     libucrt:lcidtoname_downlevel.obj
 0002:0000b8b8       ??_C@_1M@JKEOHLDK@?$AAf?$AAr?$AA?9?$AAb?$AAe@ 00000001400588b8     libucrt:lcidtoname_downlevel.obj
 0002:0000b8c8       ??_C@_1M@NOHADPMI@?$AAf?$AAr?$AA?9?$AAc?$AAa@ 00000001400588c8     libucrt:lcidtoname_downlevel.obj
 0002:0000b8d8       ??_C@_1M@KDHIHAEC@?$AAf?$AAr?$AA?9?$AAc?$AAh@ 00000001400588d8     libucrt:lcidtoname_downlevel.obj
 0002:0000b8e8       ??_C@_1M@MMBBFGAK@?$AAf?$AAr?$AA?9?$AAf?$AAr@ 00000001400588e8     libucrt:lcidtoname_downlevel.obj
 0002:0000b8f8       ??_C@_1M@PAFNENNF@?$AAf?$AAr?$AA?9?$AAl?$AAu@ 00000001400588f8     libucrt:lcidtoname_downlevel.obj
 0002:0000b908       ??_C@_1M@EOHDJGDD@?$AAf?$AAr?$AA?9?$AAm?$AAc@ 0000000140058908     libucrt:lcidtoname_downlevel.obj
 0002:0000b918       ??_C@_1M@FAPLLOPF@?$AAg?$AAl?$AA?9?$AAe?$AAs@ 0000000140058918     libucrt:lcidtoname_downlevel.obj
 0002:0000b928       ??_C@_1M@FOPBFLOO@?$AAg?$AAu?$AA?9?$AAi?$AAn@ 0000000140058928     libucrt:lcidtoname_downlevel.obj
 0002:0000b938       ??_C@_1M@KBMCINPM@?$AAh?$AAe?$AA?9?$AAi?$AAl@ 0000000140058938     libucrt:lcidtoname_downlevel.obj
 0002:0000b948       ??_C@_1M@BBPHKFPJ@?$AAh?$AAi?$AA?9?$AAi?$AAn@ 0000000140058948     libucrt:lcidtoname_downlevel.obj
 0002:0000b958       ??_C@_1M@PMBNDPHD@?$AAh?$AAr?$AA?9?$AAb?$AAa@ 0000000140058958     libucrt:lcidtoname_downlevel.obj
 0002:0000b968       ??_C@_1M@BPCKOEGE@?$AAh?$AAr?$AA?9?$AAh?$AAr@ 0000000140058968     libucrt:lcidtoname_downlevel.obj
 0002:0000b978       ??_C@_1M@GACBMHKE@?$AAh?$AAu?$AA?9?$AAh?$AAu@ 0000000140058978     libucrt:lcidtoname_downlevel.obj
 0002:0000b988       ??_C@_1M@MILPAJJC@?$AAh?$AAy?$AA?9?$AAa?$AAm@ 0000000140058988     libucrt:lcidtoname_downlevel.obj
 0002:0000b998       ??_C@_1M@BABBICEC@?$AAi?$AAd?$AA?9?$AAi?$AAd@ 0000000140058998     libucrt:lcidtoname_downlevel.obj
 0002:0000b9a8       ??_C@_1M@BIKNHHPF@?$AAi?$AAs?$AA?9?$AAi?$AAs@ 00000001400589a8     libucrt:lcidtoname_downlevel.obj
 0002:0000b9b8       ??_C@_1M@NMPCJPHE@?$AAi?$AAt?$AA?9?$AAc?$AAh@ 00000001400589b8     libucrt:lcidtoname_downlevel.obj
 0002:0000b9c8       ??_C@_1M@GHKGFEDF@?$AAi?$AAt?$AA?9?$AAi?$AAt@ 00000001400589c8     libucrt:lcidtoname_downlevel.obj
 0002:0000b9d8       ??_C@_1M@NIEJCJJA@?$AAj?$AAa?$AA?9?$AAj?$AAp@ 00000001400589d8     libucrt:lcidtoname_downlevel.obj
 0002:0000b9e8       ??_C@_1M@JILFNBIM@?$AAk?$AAa?$AA?9?$AAg?$AAe@ 00000001400589e8     libucrt:lcidtoname_downlevel.obj
 0002:0000b9f8       ??_C@_1M@PACPMGPH@?$AAk?$AAk?$AA?9?$AAk?$AAz@ 00000001400589f8     libucrt:lcidtoname_downlevel.obj
 0002:0000ba08       ??_C@_1M@IELFGMHA@?$AAk?$AAn?$AA?9?$AAi?$AAn@ 0000000140058a08     libucrt:lcidtoname_downlevel.obj
 0002:0000ba18       ??_C@_1O@IBBJHCH@?$AAk?$AAo?$AAk?$AA?9?$AAi?$AAn@ 0000000140058a18     libucrt:lcidtoname_downlevel.obj
 0002:0000ba28       ??_C@_1M@DMHAEOGC@?$AAk?$AAo?$AA?9?$AAk?$AAr@ 0000000140058a28     libucrt:lcidtoname_downlevel.obj
 0002:0000ba38       ??_C@_1M@HBAHBIGA@?$AAk?$AAy?$AA?9?$AAk?$AAg@ 0000000140058a38     libucrt:lcidtoname_downlevel.obj
 0002:0000ba48       ??_C@_1M@KPMILCJG@?$AAl?$AAt?$AA?9?$AAl?$AAt@ 0000000140058a48     libucrt:lcidtoname_downlevel.obj
 0002:0000ba58       ??_C@_1M@BDEKKCA@?$AAl?$AAv?$AA?9?$AAl?$AAv@ 0000000140058a58     libucrt:lcidtoname_downlevel.obj
 0002:0000ba68       ??_C@_1M@ELCKCCJJ@?$AAm?$AAi?$AA?9?$AAn?$AAz@ 0000000140058a68     libucrt:lcidtoname_downlevel.obj
 0002:0000ba78       ??_C@_1M@CBOOLAPA@?$AAm?$AAk?$AA?9?$AAm?$AAk@ 0000000140058a78     libucrt:lcidtoname_downlevel.obj
 0002:0000ba88       ??_C@_1M@GPHNBJKN@?$AAm?$AAl?$AA?9?$AAi?$AAn@ 0000000140058a88     libucrt:lcidtoname_downlevel.obj
 0002:0000ba98       ??_C@_1M@PABJILIG@?$AAm?$AAn?$AA?9?$AAm?$AAn@ 0000000140058a98     libucrt:lcidtoname_downlevel.obj
 0002:0000baa8       ??_C@_1M@FGBKKIPG@?$AAm?$AAr?$AA?9?$AAi?$AAn@ 0000000140058aa8     libucrt:lcidtoname_downlevel.obj
 0002:0000bab8       ??_C@_1M@NDBPDDAL@?$AAm?$AAs?$AA?9?$AAb?$AAn@ 0000000140058ab8     libucrt:lcidtoname_downlevel.obj
 0002:0000bac8       ??_C@_1M@OPIHOOPI@?$AAm?$AAs?$AA?9?$AAm?$AAy@ 0000000140058ac8     libucrt:lcidtoname_downlevel.obj
 0002:0000bad8       ??_C@_1M@PPDBCNFM@?$AAm?$AAt?$AA?9?$AAm?$AAt@ 0000000140058ad8     libucrt:lcidtoname_downlevel.obj
 0002:0000bae8       ??_C@_1M@KDJDKMDD@?$AAn?$AAb?$AA?9?$AAn?$AAo@ 0000000140058ae8     libucrt:lcidtoname_downlevel.obj
 0002:0000baf8       ??_C@_1M@KFCFLMJP@?$AAn?$AAl?$AA?9?$AAb?$AAe@ 0000000140058af8     libucrt:lcidtoname_downlevel.obj
 0002:0000bb08       ??_C@_1M@KPOPDDGO@?$AAn?$AAl?$AA?9?$AAn?$AAl@ 0000000140058b08     libucrt:lcidtoname_downlevel.obj
 0002:0000bb18       ??_C@_1M@LJKPEMLN@?$AAn?$AAn?$AA?9?$AAn?$AAo@ 0000000140058b18     libucrt:lcidtoname_downlevel.obj
 0002:0000bb28       ??_C@_1M@BDGHHBFL@?$AAn?$AAs?$AA?9?$AAz?$AAa@ 0000000140058b28     libucrt:lcidtoname_downlevel.obj
 0002:0000bb38       ??_C@_1M@IDEHOAP@?$AAp?$AAa?$AA?9?$AAi?$AAn@ 0000000140058b38     libucrt:lcidtoname_downlevel.obj
 0002:0000bb48       ??_C@_1M@HDBKGOGH@?$AAp?$AAl?$AA?9?$AAp?$AAl@ 0000000140058b48     libucrt:lcidtoname_downlevel.obj
 0002:0000bb58       ??_C@_1M@LJLLCMEH@?$AAp?$AAt?$AA?9?$AAb?$AAr@ 0000000140058b58     libucrt:lcidtoname_downlevel.obj
 0002:0000bb68       ??_C@_1M@NCMONAAL@?$AAp?$AAt?$AA?9?$AAp?$AAt@ 0000000140058b68     libucrt:lcidtoname_downlevel.obj
 0002:0000bb78       ??_C@_1O@EAKMAJDN@?$AAq?$AAu?$AAz?$AA?9?$AAb?$AAo@ 0000000140058b78     libucrt:lcidtoname_downlevel.obj
 0002:0000bb88       ??_C@_1O@BHHPIGDN@?$AAq?$AAu?$AAz?$AA?9?$AAe?$AAc@ 0000000140058b88     libucrt:lcidtoname_downlevel.obj
 0002:0000bb98       ??_C@_1O@GBAPEKMJ@?$AAq?$AAu?$AAz?$AA?9?$AAp?$AAe@ 0000000140058b98     libucrt:lcidtoname_downlevel.obj
 0002:0000bba8       ??_C@_1M@CLGLEFBO@?$AAr?$AAo?$AA?9?$AAr?$AAo@ 0000000140058ba8     libucrt:lcidtoname_downlevel.obj
 0002:0000bbb8       ??_C@_1M@CEEDODME@?$AAr?$AAu?$AA?9?$AAr?$AAu@ 0000000140058bb8     libucrt:lcidtoname_downlevel.obj
 0002:0000bbc8       ??_C@_1M@HPKKKMPP@?$AAs?$AAa?$AA?9?$AAi?$AAn@ 0000000140058bc8     libucrt:lcidtoname_downlevel.obj
 0002:0000bbd8       ??_C@_1M@BKMAIGOJ@?$AAs?$AAe?$AA?9?$AAf?$AAi@ 0000000140058bd8     libucrt:lcidtoname_downlevel.obj
 0002:0000bbe8       ??_C@_1M@NDPIFLFI@?$AAs?$AAe?$AA?9?$AAn?$AAo@ 0000000140058be8     libucrt:lcidtoname_downlevel.obj
 0002:0000bbf8       ??_C@_1M@DANKKHJ@?$AAs?$AAe?$AA?9?$AAs?$AAe@ 0000000140058bf8     libucrt:lcidtoname_downlevel.obj
 0002:0000bc08       ??_C@_1M@PNBLONPJ@?$AAs?$AAk?$AA?9?$AAs?$AAk@ 0000000140058c08     libucrt:lcidtoname_downlevel.obj
 0002:0000bc18       ??_C@_1M@LFMODOAL@?$AAs?$AAl?$AA?9?$AAs?$AAi@ 0000000140058c18     libucrt:lcidtoname_downlevel.obj
 0002:0000bc28       ??_C@_1O@DFKOMPG@?$AAs?$AAm?$AAa?$AA?9?$AAn?$AAo@ 0000000140058c28     libucrt:lcidtoname_downlevel.obj
 0002:0000bc38       ??_C@_1O@NDKPBNNH@?$AAs?$AAm?$AAa?$AA?9?$AAs?$AAe@ 0000000140058c38     libucrt:lcidtoname_downlevel.obj
 0002:0000bc48       ??_C@_1O@PLLKBHAB@?$AAs?$AAm?$AAj?$AA?9?$AAn?$AAo@ 0000000140058c48     libucrt:lcidtoname_downlevel.obj
 0002:0000bc58       ??_C@_1O@CLEPOGCA@?$AAs?$AAm?$AAj?$AA?9?$AAs?$AAe@ 0000000140058c58     libucrt:lcidtoname_downlevel.obj
 0002:0000bc68       ??_C@_1O@DLGJGKMK@?$AAs?$AAm?$AAn?$AA?9?$AAf?$AAi@ 0000000140058c68     libucrt:lcidtoname_downlevel.obj
 0002:0000bc78       ??_C@_1O@OJDJGAJC@?$AAs?$AAm?$AAs?$AA?9?$AAf?$AAi@ 0000000140058c78     libucrt:lcidtoname_downlevel.obj
 0002:0000bc88       ??_C@_1M@BOFOGHPB@?$AAs?$AAq?$AA?9?$AAa?$AAl@ 0000000140058c88     libucrt:lcidtoname_downlevel.obj
 0002:0000bc98       ??_C@_1BG@LJBBIPGB@?$AAs?$AAr?$AA?9?$AAb?$AAa?$AA?9?$AAc?$AAy?$AAr?$AAl@ 0000000140058c98     libucrt:lcidtoname_downlevel.obj
 0002:0000bcb0       ??_C@_1BG@JLBENFOE@?$AAs?$AAr?$AA?9?$AAb?$AAa?$AA?9?$AAl?$AAa?$AAt?$AAn@ 0000000140058cb0     libucrt:lcidtoname_downlevel.obj
 0002:0000bcc8       ??_C@_1BG@KODPNHE@?$AAs?$AAr?$AA?9?$AAs?$AAp?$AA?9?$AAc?$AAy?$AAr?$AAl@ 0000000140058cc8     libucrt:lcidtoname_downlevel.obj
 0002:0000bce0       ??_C@_1BG@CIOGKHPB@?$AAs?$AAr?$AA?9?$AAs?$AAp?$AA?9?$AAl?$AAa?$AAt?$AAn@ 0000000140058ce0     libucrt:lcidtoname_downlevel.obj
 0002:0000bcf8       ??_C@_1M@NGFJLMAC@?$AAs?$AAv?$AA?9?$AAf?$AAi@ 0000000140058cf8     libucrt:lcidtoname_downlevel.obj
 0002:0000bd08       ??_C@_1M@MPJEJAJC@?$AAs?$AAv?$AA?9?$AAs?$AAe@ 0000000140058d08     libucrt:lcidtoname_downlevel.obj
 0002:0000bd18       ??_C@_1M@MPNDHLFK@?$AAs?$AAw?$AA?9?$AAk?$AAe@ 0000000140058d18     libucrt:lcidtoname_downlevel.obj
 0002:0000bd28       ??_C@_1O@KOHBJJI@?$AAs?$AAy?$AAr?$AA?9?$AAs?$AAy@ 0000000140058d28     libucrt:lcidtoname_downlevel.obj
 0002:0000bd38       ??_C@_1M@LDCEFHA@?$AAt?$AAa?$AA?9?$AAi?$AAn@ 0000000140058d38     libucrt:lcidtoname_downlevel.obj
 0002:0000bd48       ??_C@_1M@CNJOFAK@?$AAt?$AAe?$AA?9?$AAi?$AAn@ 0000000140058d48     libucrt:lcidtoname_downlevel.obj
 0002:0000bd58       ??_C@_1M@GNAECACD@?$AAt?$AAh?$AA?9?$AAt?$AAh@ 0000000140058d58     libucrt:lcidtoname_downlevel.obj
 0002:0000bd68       ??_C@_1M@CHBIHOJO@?$AAt?$AAn?$AA?9?$AAz?$AAa@ 0000000140058d68     libucrt:lcidtoname_downlevel.obj
 0002:0000bd78       ??_C@_1M@GCCMIGPJ@?$AAt?$AAr?$AA?9?$AAt?$AAr@ 0000000140058d78     libucrt:lcidtoname_downlevel.obj
 0002:0000bd88       ??_C@_1M@CELMCNBK@?$AAt?$AAt?$AA?9?$AAr?$AAu@ 0000000140058d88     libucrt:lcidtoname_downlevel.obj
 0002:0000bd98       ??_C@_1M@KLMCELGA@?$AAu?$AAk?$AA?9?$AAu?$AAa@ 0000000140058d98     libucrt:lcidtoname_downlevel.obj
 0002:0000bda8       ??_C@_1M@EPAJJAJF@?$AAu?$AAr?$AA?9?$AAp?$AAk@ 0000000140058da8     libucrt:lcidtoname_downlevel.obj
 0002:0000bdb8       ??_C@_1BG@GEGPMCDJ@?$AAu?$AAz?$AA?9?$AAu?$AAz?$AA?9?$AAc?$AAy?$AAr?$AAl@ 0000000140058db8     libucrt:lcidtoname_downlevel.obj
 0002:0000bdd0       ??_C@_1BG@EGGKJILM@?$AAu?$AAz?$AA?9?$AAu?$AAz?$AA?9?$AAl?$AAa?$AAt?$AAn@ 0000000140058dd0     libucrt:lcidtoname_downlevel.obj
 0002:0000bde8       ??_C@_1M@GFOCLFF@?$AAv?$AAi?$AA?9?$AAv?$AAn@ 0000000140058de8     libucrt:lcidtoname_downlevel.obj
 0002:0000bdf8       ??_C@_1M@CPAMEDFI@?$AAx?$AAh?$AA?9?$AAz?$AAa@ 0000000140058df8     libucrt:lcidtoname_downlevel.obj
 0002:0000be08       ??_C@_1O@EBKIFIGN@?$AAz?$AAh?$AA?9?$AAc?$AAh?$AAs@ 0000000140058e08     libucrt:lcidtoname_downlevel.obj
 0002:0000be18       ??_C@_1O@NMHPGANE@?$AAz?$AAh?$AA?9?$AAc?$AAh?$AAt@ 0000000140058e18     libucrt:lcidtoname_downlevel.obj
 0002:0000be28       ??_C@_1M@LPINJOMC@?$AAz?$AAh?$AA?9?$AAc?$AAn@ 0000000140058e28     libucrt:lcidtoname_downlevel.obj
 0002:0000be38       ??_C@_1M@OCJEJODD@?$AAz?$AAh?$AA?9?$AAh?$AAk@ 0000000140058e38     libucrt:lcidtoname_downlevel.obj
 0002:0000be48       ??_C@_1M@DNDLJINH@?$AAz?$AAh?$AA?9?$AAm?$AAo@ 0000000140058e48     libucrt:lcidtoname_downlevel.obj
 0002:0000be58       ??_C@_1M@MBFDNDND@?$AAz?$AAh?$AA?9?$AAs?$AAg@ 0000000140058e58     libucrt:lcidtoname_downlevel.obj
 0002:0000be68       ??_C@_1M@IMEPLEPE@?$AAz?$AAh?$AA?9?$AAt?$AAw@ 0000000140058e68     libucrt:lcidtoname_downlevel.obj
 0002:0000be78       ??_C@_1M@BBGHNHJP@?$AAz?$AAu?$AA?9?$AAz?$AAa@ 0000000140058e78     libucrt:lcidtoname_downlevel.obj
 0002:0000be84       ??_C@_01GBGANLPD@0@        0000000140058e84     libucrt:cfout.obj
 0002:0000be88       ??_C@_05DNEBIAHO@1?$CDINF@ 0000000140058e88     libucrt:cfout.obj
 0002:0000be90       ??_C@_06IMKFLFPG@1?$CDQNAN@ 0000000140058e90     libucrt:cfout.obj
 0002:0000be98       ??_C@_06PGGFOGJG@1?$CDSNAN@ 0000000140058e98     libucrt:cfout.obj
 0002:0000bea0       ??_C@_05PHHOCPM@1?$CDIND@  0000000140058ea0     libucrt:cfout.obj
 0002:0000bea8       ??_C@_1BA@BALFACEM@?$AAC?$AAO?$AAN?$AAO?$AAU?$AAT?$AA$@ 0000000140058ea8     libucrt:initcon.obj
 0002:0000c110       __log10_256_lead           0000000140059110     libucrt:log10_256_lead_tail_table.obj
 0002:0000c920       __log10_256_tail           0000000140059920     libucrt:log10_256_lead_tail_table.obj
 0002:0000d130       ??_7type_info@@6B@         000000014005a130     LIBCMT:std_type_info_static.obj
 0002:0000d140       _load_config_used          000000014005a140     LIBCMT:loadcfg.obj
 0002:0000d300       _tls_used                  000000014005a300     LIBCMT:tlssup.obj
 0002:0000d328       ??_R4exception@std@@6B@    000000014005a328     libvcruntime:frame.obj
 0002:0000d350       ??_R3exception@std@@8      000000014005a350     libvcruntime:frame.obj
 0002:0000d368       ??_R2exception@std@@8      000000014005a368     libvcruntime:frame.obj
 0002:0000d378       ??_R1A@?0A@EA@exception@std@@8 000000014005a378     libvcruntime:frame.obj
 0002:0000d3a0       ??_R4bad_exception@std@@6B@ 000000014005a3a0     libvcruntime:frame.obj
 0002:0000d3c8       ??_R3bad_exception@std@@8  000000014005a3c8     libvcruntime:frame.obj
 0002:0000d3e0       ??_R2bad_exception@std@@8  000000014005a3e0     libvcruntime:frame.obj
 0002:0000d3f8       ??_R1A@?0A@EA@bad_exception@std@@8 000000014005a3f8     libvcruntime:frame.obj
 0002:0000d420       ??_R4type_info@@6B@        000000014005a420     LIBCMT:std_type_info_static.obj
 0002:0000d448       ??_R3type_info@@8          000000014005a448     LIBCMT:std_type_info_static.obj
 0002:0000d460       ??_R2type_info@@8          000000014005a460     LIBCMT:std_type_info_static.obj
 0002:0000d470       ??_R1A@?0A@EA@type_info@@8 000000014005a470     LIBCMT:std_type_info_static.obj
 0002:0000d494       __volatile_metadata        000000014005a494     <linker-defined>
 0002:0000db60       __rtc_iaa                  000000014005ab60     LIBCMT:initsect.obj
 0002:0000db68       __rtc_izz                  000000014005ab68     LIBCMT:initsect.obj
 0002:0000db70       __rtc_taa                  000000014005ab70     LIBCMT:initsect.obj
 0002:0000db78       __rtc_tzz                  000000014005ab78     LIBCMT:initsect.obj
 0002:0000db80       _tls_start                 000000014005ab80     LIBCMT:tlssup.obj
 0002:0000dba8       _tls_end                   000000014005aba8     LIBCMT:tlssup.obj
 0002:0000fe98       _TI2?AVbad_exception@std@@ 000000014005ce98     libvcruntime:frame.obj
 0002:0000feb8       _CTA2?AVbad_exception@std@@ 000000014005ceb8     libvcruntime:frame.obj
 0002:0000fed0       _CT??_R0?AVbad_exception@std@@@8??0bad_exception@std@@QEAA@AEBV01@@Z24 000000014005ced0     libvcruntime:frame.obj
 0002:0000fef8       _CT??_R0?AVexception@std@@@8??0exception@std@@QEAA@AEBV01@@Z24 000000014005cef8     libvcruntime:frame.obj
 0002:0000ff1c       __IMPORT_DESCRIPTOR_SDL2   000000014005cf1c     SDL2:SDL2.dll
 0002:0000ff30       __IMPORT_DESCRIPTOR_glew32 000000014005cf30     glew32:glew32.dll
 0002:0000ff44       __IMPORT_DESCRIPTOR_OPENGL32 000000014005cf44     OpenGL32:OPENGL32.dll
 0002:0000ff58       __IMPORT_DESCRIPTOR_KERNEL32 000000014005cf58     kernel32:KERNEL32.dll
 0002:0000ff6c       __NULL_IMPORT_DESCRIPTOR   000000014005cf6c     SDL2:SDL2.dll
 0003:00000000       ?colorWhite@@3PAMA         000000014005e000     main_win.obj
 0003:00000010       ?colorRed@@3PAMA           000000014005e010     main_win.obj
 0003:00000020       ?colorBlue@@3PAMA          000000014005e020     main_win.obj
 0003:00000030       ?_cached_white@@3IA        000000014005e030     main_win.obj
 0003:00000034       ?g_screenWidth@@3HA        000000014005e034     main_win.obj
 0003:00000038       ?g_screenHeight@@3HA       000000014005e038     main_win.obj
 0003:00000110       __security_cookie_complement 000000014005e110     LIBCMT:gs_cookie.obj
 0003:00000118       __security_cookie          000000014005e118     LIBCMT:gs_cookie.obj
 0003:00000120       _fltused                   000000014005e120     LIBCMT:fltused.obj
 0003:00000124       __scrt_native_dllmain_reason 000000014005e124     LIBCMT:utility.obj
 0003:00000128       __scrt_default_matherr     000000014005e128     LIBCMT:matherr.obj
 0003:00000130       __isa_available            000000014005e130     LIBCMT:cpu_disp.obj
 0003:00000134       __isa_enabled              000000014005e134     LIBCMT:cpu_disp.obj
 0003:00000138       __memset_fast_string_threshold 000000014005e138     LIBCMT:cpu_disp.obj
 0003:00000140       __memset_nt_threshold      000000014005e140     LIBCMT:cpu_disp.obj
 0003:00000160       _iob                       000000014005e160     libucrt:_file.obj
 0003:00000270       __abort_behavior           000000014005e270     libucrt:abort.obj
 0003:00000280       __acrt_initial_locale_data 000000014005e280     libucrt:nlsdata.obj
 0003:000003d8       __acrt_initial_locale_pointers 000000014005e3d8     libucrt:nlsdata.obj
 0003:000003e8       __acrt_wide_c_locale_string 000000014005e3e8     libucrt:nlsdata.obj
 0003:000003f0       __badioinfo                000000014005e3f0     libucrt:ioinit.obj
 0003:00000440       _lookuptrailbytes          000000014005e440     libucrt:read.obj
 0003:00000540       __acrt_initial_multibyte_data 000000014005e540     libucrt:mbctype.obj
 0003:00000a80       __acrt_lconv_c             000000014005ea80     libucrt:localeconv.obj
 0003:00000b18       __acrt_lconv_static_decimal 000000014005eb18     libucrt:localeconv.obj
 0003:00000b1c       __acrt_lconv_static_W_decimal 000000014005eb1c     libucrt:localeconv.obj
 0003:00000b20       __globallocalestatus       000000014005eb20     libucrt:glstatus.obj
 0003:00000b50       ??_R0?AVbad_exception@std@@@8 000000014005eb50     libvcruntime:frame.obj
 0003:00000b78       ??_R0?AVexception@std@@@8  000000014005eb78     libvcruntime:frame.obj
 0003:00000ba0       ??_R0?AVtype_info@@@8      000000014005eba0     LIBCMT:std_type_info_static.obj
 0003:00000bc0       ?g_window@@3PEAUSDL_Window@@EA 000000014005ebc0     main_win.obj
 0003:00000bc8       ?g_ctx@@3PEAXEA            000000014005ebc8     main_win.obj
 0003:00000bd0       ?prevTime@@3MA             000000014005ebd0     main_win.obj
 0003:00000be0       ?g_app@@3UScene@@A         000000014005ebe0     main_win.obj
 0003:0003c000       ?_OptionsStorage@?1??__local_stdio_printf_options@@9@4_KA 000000014009a000     main_win.obj
 0003:0003c008       ?_OptionsStorage@?1??__local_stdio_scanf_options@@9@4_KA 000000014009a008     main_win.obj
 0003:0003c580       _tls_index                 000000014009a580     LIBCMT:tlssup.obj
 0003:0003c588       __scrt_current_native_startup_state 000000014009a588     LIBCMT:utility.obj
 0003:0003c590       __scrt_native_startup_lock 000000014009a590     LIBCMT:utility.obj
 0003:0003c5d0       ?__type_info_root_node@@3U__type_info_node@@A 000000014009a5d0     LIBCMT:tncleanup.obj
 0003:0003c5e0       __scrt_debugger_hook_flag  000000014009a5e0     LIBCMT:utility_desktop.obj
 0003:0003c5e4       __favor                    000000014009a5e4     LIBCMT:cpu_disp.obj
 0003:0003c5e8       ?__WinRTOutOfMemoryExceptionCallback@@3P6APEAXXZEA 000000014009a5e8     libvcruntime:ehhelpers.obj
 0003:0003c6a0       ?pArgList@UnDecorator@@0PEAVReplicator@@EA 000000014009a6a0     libvcruntime:undname.obj
 0003:0003c6a8       ?pZNameList@UnDecorator@@0PEAVReplicator@@EA 000000014009a6a8     libvcruntime:undname.obj
 0003:0003c6b0       ?pTemplateArgList@UnDecorator@@0PEAVReplicator@@EA 000000014009a6b0     libvcruntime:undname.obj
 0003:0003c6b8       ?gName@UnDecorator@@0PEBDEB 000000014009a6b8     libvcruntime:undname.obj
 0003:0003c6c0       ?name@UnDecorator@@0PEBDEB 000000014009a6c0     libvcruntime:undname.obj
 0003:0003c6c8       ?disableFlags@UnDecorator@@0KA 000000014009a6c8     libvcruntime:undname.obj
 0003:0003c6cc       ?fExplicitTemplateParams@UnDecorator@@0_NA 000000014009a6cc     libvcruntime:undname.obj
 0003:0003c6cd       ?fGetTemplateArgumentList@UnDecorator@@0_NA 000000014009a6cd     libvcruntime:undname.obj
 0003:0003c6d0       ?m_pGetParameter@UnDecorator@@0P6APEADJ@ZEA 000000014009a6d0     libvcruntime:undname.obj
 0003:0003c6d8       ?m_CHPENameOffset@UnDecorator@@0KA 000000014009a6d8     libvcruntime:undname.obj
 0003:0003c6dc       ?m_recursionLevel@UnDecorator@@0KA 000000014009a6dc     libvcruntime:undname.obj
 0003:0003c748       __pPurecall                000000014009a748     libvcruntime:purevirt_data.obj
 0003:0003c750       _nstream                   000000014009a750     libucrt:_file.obj
 0003:0003c758       __piob                     000000014009a758     libucrt:_file.obj
 0003:0003c760       _cflush                    000000014009a760     libucrt:_file.obj
 0003:0003c878       _environ_table             000000014009a878     libucrt:environment_initialization.obj
 0003:0003c880       _wenviron_table            000000014009a880     libucrt:environment_initialization.obj
 0003:0003c888       __dcrt_initial_wide_environment 000000014009a888     libucrt:environment_initialization.obj
 0003:0003c890       __dcrt_initial_narrow_environment 000000014009a890     libucrt:environment_initialization.obj
 0003:0003c8a8       ?c_exit_complete@?1???R<lambda_6e4b09c48022b2350581041d5f6b0c4c>@@QEBA@XZ@4_NA 000000014009a8a8     libucrt:exit.obj
 0003:0003c8ac       __acrt_locale_changed_data 000000014009a8ac     libucrt:wsetlocale.obj
 0003:0003c8b4       _commode                   000000014009a8b4     libucrt:ncommode.obj
 0003:0003c8b8       __acrt_atexit_table        000000014009a8b8     libucrt:onexit.obj
 0003:0003c8d0       __acrt_at_quick_exit_table 000000014009a8d0     libucrt:onexit.obj
 0003:0003c8f0       __acrt_current_locale_data 000000014009a8f0     libucrt:nlsdata.obj
 0003:0003ca90       __pioinfo                  000000014009aa90     libucrt:ioinit.obj
 0003:0003ce90       _nhandle                   000000014009ae90     libucrt:ioinit.obj
 0003:0003d0e8       __acrt_stdout_buffer       000000014009b0e8     libucrt:_sftbuf.obj
 0003:0003d0f0       __acrt_stderr_buffer       000000014009b0f0     libucrt:_sftbuf.obj
 0003:0003d120       __fma3_is_available        000000014009b120     libucrt:fma3_available.obj
 0003:0003d124       __use_fma3_lib             000000014009b124     libucrt:fma3_available.obj
 0003:0003d128       _mbctype                   000000014009b128     libucrt:mbctype.obj
 0003:0003d130       _mbcasemap                 000000014009b130     libucrt:mbctype.obj
 0003:0003d138       __acrt_current_multibyte_data 000000014009b138     libucrt:mbctype.obj
 0003:0003d148       _pgmptr                    000000014009b148     libucrt:argv_data.obj
 0003:0003d150       __argc                     000000014009b150     libucrt:argv_data.obj
 0003:0003d158       __argv                     000000014009b158     libucrt:argv_data.obj
 0003:0003d160       __wargv                    000000014009b160     libucrt:argv_data.obj
 0003:0003d168       _acmdln                    000000014009b168     libucrt:argv_data.obj
 0003:0003d170       _wcmdln                    000000014009b170     libucrt:argv_data.obj
 0003:0003d180       _fmode                     000000014009b180     libucrt:txtmode.obj
 0003:0003d184       __acrt_lconv_static_null   000000014009b184     libucrt:localeconv.obj
 0003:0003d188       __acrt_lconv_static_W_null 000000014009b188     libucrt:localeconv.obj
 0003:0003d190       __acrt_heap                000000014009b190     libucrt:heap_handle.obj
 0003:0003d1a0       _umaskval                  000000014009b1a0     libucrt:umask.obj
 0003:0003d1b0       __scrt_ucrt_dll_is_in_use  000000014009b1b0     <common>
 0003:0003d1b8       __dyn_tls_dtor_callback    000000014009b1b8     <common>
 0003:0003d1c0       __dyn_tls_init_callback    000000014009b1c0     <common>

 entry point at        0001:00026a98

 Static symbols

 0000:fff5f000       .debug$S                   0000000140000000     SDL2:SDL2.dll
 0000:fff5f000       .debug$S                   0000000140000000     SDL2:SDL2.dll
 0000:fff5f000       .debug$S                   0000000140000000     SDL2:SDL2.dll
 0000:fff5f000       .debug$S                   0000000140000000     SDL2:SDL2.dll
 0000:fff5f000       .debug$S                   0000000140000000     SDL2:SDL2.dll
 0000:fff5f000       .debug$S                   0000000140000000     SDL2:SDL2.dll
 0000:fff5f000       .debug$S                   0000000140000000     SDL2:SDL2.dll
 0000:fff5f000       .debug$S                   0000000140000000     SDL2:SDL2.dll
 0000:fff5f000       .debug$S                   0000000140000000     SDL2:SDL2.dll
 0000:fff5f000       .debug$S                   0000000140000000     SDL2:SDL2.dll
 0000:fff5f000       .debug$S                   0000000140000000     SDL2:SDL2.dll
 0000:fff5f000       .debug$S                   0000000140000000     SDL2:SDL2.dll
 0000:fff5f000       .debug$S                   0000000140000000     SDL2:SDL2.dll
 0000:fff5f000       .debug$S                   0000000140000000     SDL2:SDL2.dll
 0000:fff5f000       .debug$S                   0000000140000000     SDL2:SDL2.dll
 0000:fff5f000       .debug$S                   0000000140000000     SDL2:SDL2.dll
 0000:fff5f000       .debug$S                   0000000140000000     glew32:glew32.dll
 0000:fff5f000       .debug$S                   0000000140000000     glew32:glew32.dll
 0000:fff5f000       .debug$S                   0000000140000000     glew32:glew32.dll
 0000:fff5f000       .debug$S                   0000000140000000     glew32:glew32.dll
 0000:fff5f000       .debug$S                   0000000140000000     glew32:glew32.dll
 0000:fff5f000       .debug$S                   0000000140000000     glew32:glew32.dll
 0000:fff5f000       .debug$S                   0000000140000000     glew32:glew32.dll
 0000:fff5f000       .debug$S                   0000000140000000     glew32:glew32.dll
 0000:fff5f000       .debug$S                   0000000140000000     glew32:glew32.dll
 0000:fff5f000       .debug$S                   0000000140000000     glew32:glew32.dll
 0000:fff5f000       .debug$S                   0000000140000000     glew32:glew32.dll
 0000:fff5f000       .debug$S                   0000000140000000     glew32:glew32.dll
 0000:fff5f000       .debug$S                   0000000140000000     glew32:glew32.dll
 0000:fff5f000       .debug$S                   0000000140000000     glew32:glew32.dll
 0000:fff5f000       .debug$S                   0000000140000000     glew32:glew32.dll
 0000:fff5f000       .debug$S                   0000000140000000     glew32:glew32.dll
 0000:fff5f000       .debug$S                   0000000140000000     glew32:glew32.dll
 0000:fff5f000       .debug$S                   0000000140000000     glew32:glew32.dll
 0000:fff5f000       .debug$S                   0000000140000000     glew32:glew32.dll
 0000:fff5f000       .debug$S                   0000000140000000     glew32:glew32.dll
 0000:fff5f000       .debug$S                   0000000140000000     glew32:glew32.dll
 0000:fff5f000       .debug$S                   0000000140000000     glew32:glew32.dll
 0000:fff5f000       .debug$S                   0000000140000000     glew32:glew32.dll
 0000:fff5f000       .debug$S                   0000000140000000     glew32:glew32.dll
 0000:fff5f000       .debug$S                   0000000140000000     glew32:glew32.dll
 0000:fff5f000       .debug$S                   0000000140000000     glew32:glew32.dll
 0000:fff5f000       .debug$S                   0000000140000000     glew32:glew32.dll
 0000:fff5f000       .debug$S                   0000000140000000     glew32:glew32.dll
 0000:fff5f000       .debug$S                   0000000140000000     glew32:glew32.dll
 0000:fff5f000       .debug$S                   0000000140000000     glew32:glew32.dll
 0000:fff5f000       .debug$S                   0000000140000000     glew32:glew32.dll
 0000:fff5f000       .debug$S                   0000000140000000     glew32:glew32.dll
 0000:fff5f000       .debug$S                   0000000140000000     glew32:glew32.dll
 0000:fff5f000       .debug$S                   0000000140000000     glew32:glew32.dll
 0000:fff5f000       .debug$S                   0000000140000000     glew32:glew32.dll
 0000:fff5f000       .debug$S                   0000000140000000     glew32:glew32.dll
 0000:fff5f000       .debug$S                   0000000140000000     glew32:glew32.dll
 0000:fff5f000       .debug$S                   0000000140000000     glew32:glew32.dll
 0000:fff5f000       .debug$S                   0000000140000000     OpenGL32:OPENGL32.dll
 0000:fff5f000       .debug$S                   0000000140000000     OpenGL32:OPENGL32.dll
 0000:fff5f000       .debug$S                   0000000140000000     OpenGL32:OPENGL32.dll
 0000:fff5f000       .debug$S                   0000000140000000     OpenGL32:OPENGL32.dll
 0000:fff5f000       .debug$S                   0000000140000000     OpenGL32:OPENGL32.dll
 0000:fff5f000       .debug$S                   0000000140000000     OpenGL32:OPENGL32.dll
 0000:fff5f000       .debug$S                   0000000140000000     OpenGL32:OPENGL32.dll
 0000:fff5f000       .debug$S                   0000000140000000     OpenGL32:OPENGL32.dll
 0000:fff5f000       .debug$S                   0000000140000000     OpenGL32:OPENGL32.dll
 0000:fff5f000       .debug$S                   0000000140000000     OpenGL32:OPENGL32.dll
 0000:fff5f000       .debug$S                   0000000140000000     OpenGL32:OPENGL32.dll
 0000:fff5f000       .debug$S                   0000000140000000     kernel32:KERNEL32.dll
 0000:fff5f000       .debug$S                   0000000140000000     kernel32:KERNEL32.dll
 0000:fff5f000       .debug$S                   0000000140000000     kernel32:KERNEL32.dll
 0000:fff5f000       .debug$S                   0000000140000000     kernel32:KERNEL32.dll
 0000:fff5f000       .debug$S                   0000000140000000     kernel32:KERNEL32.dll
 0000:fff5f000       .debug$S                   0000000140000000     kernel32:KERNEL32.dll
 0000:fff5f000       .debug$S                   0000000140000000     kernel32:KERNEL32.dll
 0000:fff5f000       .debug$S                   0000000140000000     kernel32:KERNEL32.dll
 0000:fff5f000       .debug$S                   0000000140000000     kernel32:KERNEL32.dll
 0000:fff5f000       .debug$S                   0000000140000000     kernel32:KERNEL32.dll
 0000:fff5f000       .debug$S                   0000000140000000     kernel32:KERNEL32.dll
 0000:fff5f000       .debug$S                   0000000140000000     kernel32:KERNEL32.dll
 0000:fff5f000       .debug$S                   0000000140000000     kernel32:KERNEL32.dll
 0000:fff5f000       .debug$S                   0000000140000000     kernel32:KERNEL32.dll
 0000:fff5f000       .debug$S                   0000000140000000     kernel32:KERNEL32.dll
 0000:fff5f000       .debug$S                   0000000140000000     kernel32:KERNEL32.dll
 0000:fff5f000       .debug$S                   0000000140000000     kernel32:KERNEL32.dll
 0000:fff5f000       .debug$S                   0000000140000000     kernel32:KERNEL32.dll
 0000:fff5f000       .debug$S                   0000000140000000     kernel32:KERNEL32.dll
 0000:fff5f000       .debug$S                   0000000140000000     kernel32:KERNEL32.dll
 0000:fff5f000       .debug$S                   0000000140000000     kernel32:KERNEL32.dll
 0000:fff5f000       .debug$S                   0000000140000000     kernel32:KERNEL32.dll
 0000:fff5f000       .debug$S                   0000000140000000     kernel32:KERNEL32.dll
 0000:fff5f000       .debug$S                   0000000140000000     kernel32:KERNEL32.dll
 0000:fff5f000       .debug$S                   0000000140000000     kernel32:KERNEL32.dll
 0000:fff5f000       .debug$S                   0000000140000000     kernel32:KERNEL32.dll
 0000:fff5f000       .debug$S                   0000000140000000     kernel32:KERNEL32.dll
 0000:fff5f000       .debug$S                   0000000140000000     kernel32:KERNEL32.dll
 0000:fff5f000       .debug$S                   0000000140000000     kernel32:KERNEL32.dll
 0000:fff5f000       .debug$S                   0000000140000000     kernel32:KERNEL32.dll
 0000:fff5f000       .debug$S                   0000000140000000     kernel32:KERNEL32.dll
 0000:fff5f000       .debug$S                   0000000140000000     kernel32:KERNEL32.dll
 0000:fff5f000       .debug$S                   0000000140000000     kernel32:KERNEL32.dll
 0000:fff5f000       .debug$S                   0000000140000000     kernel32:KERNEL32.dll
 0000:fff5f000       .debug$S                   0000000140000000     kernel32:KERNEL32.dll
 0000:fff5f000       .debug$S                   0000000140000000     kernel32:KERNEL32.dll
 0000:fff5f000       .debug$S                   0000000140000000     kernel32:KERNEL32.dll
 0000:fff5f000       .debug$S                   0000000140000000     kernel32:KERNEL32.dll
 0000:fff5f000       .debug$S                   0000000140000000     kernel32:KERNEL32.dll
 0000:fff5f000       .debug$S                   0000000140000000     kernel32:KERNEL32.dll
 0000:fff5f000       .debug$S                   0000000140000000     kernel32:KERNEL32.dll
 0000:fff5f000       .debug$S                   0000000140000000     kernel32:KERNEL32.dll
 0000:fff5f000       .debug$S                   0000000140000000     kernel32:KERNEL32.dll
 0000:fff5f000       .debug$S                   0000000140000000     kernel32:KERNEL32.dll
 0000:fff5f000       .debug$S                   0000000140000000     kernel32:KERNEL32.dll
 0000:fff5f000       .debug$S                   0000000140000000     kernel32:KERNEL32.dll
 0000:fff5f000       .debug$S                   0000000140000000     kernel32:KERNEL32.dll
 0000:fff5f000       .debug$S                   0000000140000000     kernel32:KERNEL32.dll
 0000:fff5f000       .debug$S                   0000000140000000     kernel32:KERNEL32.dll
 0000:fff5f000       .debug$S                   0000000140000000     kernel32:KERNEL32.dll
 0000:fff5f000       .debug$S                   0000000140000000     kernel32:KERNEL32.dll
 0000:fff5f000       .debug$S                   0000000140000000     kernel32:KERNEL32.dll
 0000:fff5f000       .debug$S                   0000000140000000     kernel32:KERNEL32.dll
 0000:fff5f000       .debug$S                   0000000140000000     kernel32:KERNEL32.dll
 0000:fff5f000       .debug$S                   0000000140000000     kernel32:KERNEL32.dll
 0000:fff5f000       .debug$S                   0000000140000000     kernel32:KERNEL32.dll
 0000:fff5f000       .debug$S                   0000000140000000     kernel32:KERNEL32.dll
 0000:fff5f000       .debug$S                   0000000140000000     kernel32:KERNEL32.dll
 0000:fff5f000       .debug$S                   0000000140000000     kernel32:KERNEL32.dll
 0000:fff5f000       .debug$S                   0000000140000000     kernel32:KERNEL32.dll
 0000:fff5f000       .debug$S                   0000000140000000     kernel32:KERNEL32.dll
 0000:fff5f000       .debug$S                   0000000140000000     kernel32:KERNEL32.dll
 0000:fff5f000       .debug$S                   0000000140000000     kernel32:KERNEL32.dll
 0000:fff5f000       .debug$S                   0000000140000000     kernel32:KERNEL32.dll
 0000:fff5f000       .debug$S                   0000000140000000     kernel32:KERNEL32.dll
 0000:fff5f000       .debug$S                   0000000140000000     kernel32:KERNEL32.dll
 0000:fff5f000       .debug$S                   0000000140000000     kernel32:KERNEL32.dll
 0000:fff5f000       .debug$S                   0000000140000000     kernel32:KERNEL32.dll
 0000:fff5f000       .debug$S                   0000000140000000     kernel32:KERNEL32.dll
 0000:fff5f000       .debug$S                   0000000140000000     kernel32:KERNEL32.dll
 0000:fff5f000       .debug$S                   0000000140000000     kernel32:KERNEL32.dll
 0000:fff5f000       .debug$S                   0000000140000000     kernel32:KERNEL32.dll
 0000:fff5f000       .debug$S                   0000000140000000     kernel32:KERNEL32.dll
 0000:fff5f000       .debug$S                   0000000140000000     kernel32:KERNEL32.dll
 0000:fff5f000       .debug$S                   0000000140000000     kernel32:KERNEL32.dll
 0000:fff5f000       .debug$S                   0000000140000000     kernel32:KERNEL32.dll
 0000:fff5f000       .debug$S                   0000000140000000     kernel32:KERNEL32.dll
 0000:fff5f000       .debug$S                   0000000140000000     kernel32:KERNEL32.dll
 0000:fff5f000       .debug$S                   0000000140000000     kernel32:KERNEL32.dll
 0000:fff5f000       .debug$S                   0000000140000000     kernel32:KERNEL32.dll
 0000:fff5f000       .debug$S                   0000000140000000     kernel32:KERNEL32.dll
 0000:fff5f000       .debug$S                   0000000140000000     kernel32:KERNEL32.dll
 0000:fff5f000       .debug$S                   0000000140000000     kernel32:KERNEL32.dll
 0000:fff5f000       .debug$S                   0000000140000000     kernel32:KERNEL32.dll
 0000:fff5f000       .debug$S                   0000000140000000     kernel32:KERNEL32.dll
 0000:fff5f000       .debug$S                   0000000140000000     kernel32:KERNEL32.dll
 0000:fff5f000       .debug$S                   0000000140000000     kernel32:KERNEL32.dll
 0000:fff5f000       .debug$S                   0000000140000000     kernel32:KERNEL32.dll
 0000:fff5f000       .debug$S                   0000000140000000     kernel32:KERNEL32.dll
 0000:fff5f000       .debug$S                   0000000140000000     kernel32:KERNEL32.dll
 0000:fff5f000       .debug$S                   0000000140000000     kernel32:KERNEL32.dll
 0001:00001630       ?stbi__cpuid3@@YAHXZ       0000000140002630 f   main_win.obj
 0001:00001690       ?stbi__sse2_available@@YAHXZ 0000000140002690 f   main_win.obj
 0001:000016d0       ?stbi__refill_buffer@@YAXPEAUstbi__context@@@Z 00000001400026d0 f   main_win.obj
 0001:000017c0       ?stbi__start_mem@@YAXPEAUstbi__context@@PEBEH@Z 00000001400027c0 f   main_win.obj
 0001:00001860       ?stbi__start_callbacks@@YAXPEAUstbi__context@@PEAUstbi_io_callbacks@@PEAX@Z 0000000140002860 f   main_win.obj
 0001:00001920       ?stbi__stdio_read@@YAHPEAXPEADH@Z 0000000140002920 f   main_win.obj
 0001:00001960       ?stbi__stdio_skip@@YAXPEAXH@Z 0000000140002960 f   main_win.obj
 0001:000019b0       ?stbi__stdio_eof@@YAHPEAX@Z 00000001400029b0 f   main_win.obj
 0001:00001a00       ?stbi__start_file@@YAXPEAUstbi__context@@PEAU_iobuf@@@Z 0000000140002a00 f   main_win.obj
 0001:00001a30       ?stbi__rewind@@YAXPEAUstbi__context@@@Z 0000000140002a30 f   main_win.obj
 0001:00001a70       ?stbi__jpeg_test@@YAHPEAUstbi__context@@@Z 0000000140002a70 f   main_win.obj
 0001:00001af0       ?stbi__jpeg_load@@YAPEAXPEAUstbi__context@@PEAH11HPEAUstbi__result_info@@@Z 0000000140002af0 f   main_win.obj
 0001:00001bb0       ?stbi__jpeg_info@@YAHPEAUstbi__context@@PEAH11@Z 0000000140002bb0 f   main_win.obj
 0001:00001c30       ?stbi__png_test@@YAHPEAUstbi__context@@@Z 0000000140002c30 f   main_win.obj
 0001:00001c60       ?stbi__png_load@@YAPEAXPEAUstbi__context@@PEAH11HPEAUstbi__result_info@@@Z 0000000140002c60 f   main_win.obj
 0001:00001cd0       ?stbi__png_info@@YAHPEAUstbi__context@@PEAH11@Z 0000000140002cd0 f   main_win.obj
 0001:00001d20       ?stbi__png_is16@@YAHPEAUstbi__context@@@Z 0000000140002d20 f   main_win.obj
 0001:00001d80       ?stbi__bmp_test@@YAHPEAUstbi__context@@@Z 0000000140002d80 f   main_win.obj
 0001:00001db0       ?stbi__bmp_load@@YAPEAXPEAUstbi__context@@PEAH11HPEAUstbi__result_info@@@Z 0000000140002db0 f   main_win.obj
 0001:00002f80       ?stbi__bmp_info@@YAHPEAUstbi__context@@PEAH11@Z 0000000140003f80 f   main_win.obj
 0001:00003080       ?stbi__tga_test@@YAHPEAUstbi__context@@@Z 0000000140004080 f   main_win.obj
 0001:00003220       ?stbi__tga_load@@YAPEAXPEAUstbi__context@@PEAH11HPEAUstbi__result_info@@@Z 0000000140004220 f   main_win.obj
 0001:00003ca0       ?stbi__tga_info@@YAHPEAUstbi__context@@PEAH11@Z 0000000140004ca0 f   main_win.obj
 0001:00003f10       ?stbi__psd_test@@YAHPEAUstbi__context@@@Z 0000000140004f10 f   main_win.obj
 0001:00003f60       ?stbi__psd_load@@YAPEAXPEAUstbi__context@@PEAH11HPEAUstbi__result_info@@H@Z 0000000140004f60 f   main_win.obj
 0001:00004b00       ?stbi__psd_info@@YAHPEAUstbi__context@@PEAH11@Z 0000000140005b00 f   main_win.obj
 0001:00004c50       ?stbi__psd_is16@@YAHPEAUstbi__context@@@Z 0000000140005c50 f   main_win.obj
 0001:00004d20       ?stbi__hdr_test@@YAHPEAUstbi__context@@@Z 0000000140005d20 f   main_win.obj
 0001:00004d80       ?stbi__hdr_load@@YAPEAMPEAUstbi__context@@PEAH11HPEAUstbi__result_info@@@Z 0000000140005d80 f   main_win.obj
 0001:000056e0       ?stbi__hdr_info@@YAHPEAUstbi__context@@PEAH11@Z 00000001400066e0 f   main_win.obj
 0001:00005920       ?stbi__pic_test@@YAHPEAUstbi__context@@@Z 0000000140006920 f   main_win.obj
 0001:00005950       ?stbi__pic_load@@YAPEAXPEAUstbi__context@@PEAH11HPEAUstbi__result_info@@@Z 0000000140006950 f   main_win.obj
 0001:00005c10       ?stbi__pic_info@@YAHPEAUstbi__context@@PEAH11@Z 0000000140006c10 f   main_win.obj
 0001:00005ea0       ?stbi__gif_test@@YAHPEAUstbi__context@@@Z 0000000140006ea0 f   main_win.obj
 0001:00005ed0       ?stbi__gif_load@@YAPEAXPEAUstbi__context@@PEAH11HPEAUstbi__result_info@@@Z 0000000140006ed0 f   main_win.obj
 0001:00006020       ?stbi__load_gif_main@@YAPEAXPEAUstbi__context@@PEAPEAHPEAH222H@Z 0000000140007020 f   main_win.obj
 0001:00006420       ?stbi__gif_info@@YAHPEAUstbi__context@@PEAH11@Z 0000000140007420 f   main_win.obj
 0001:00006460       ?stbi__pnm_test@@YAHPEAUstbi__context@@@Z 0000000140007460 f   main_win.obj
 0001:000064d0       ?stbi__pnm_load@@YAPEAXPEAUstbi__context@@PEAH11HPEAUstbi__result_info@@@Z 00000001400074d0 f   main_win.obj
 0001:00006770       ?stbi__pnm_info@@YAHPEAUstbi__context@@PEAH11@Z 0000000140007770 f   main_win.obj
 0001:00006900       ?stbi__pnm_is16@@YAHPEAUstbi__context@@@Z 0000000140007900 f   main_win.obj
 0001:00006940       ?stbi__err@@YAHPEBD@Z      0000000140007940 f   main_win.obj
 0001:00006980       ?stbi__malloc@@YAPEAX_K@Z  0000000140007980 f   main_win.obj
 0001:000069a0       ?stbi__addsizes_valid@@YAHHH@Z 00000001400079a0 f   main_win.obj
 0001:000069f0       ?stbi__mul2sizes_valid@@YAHHH@Z 00000001400079f0 f   main_win.obj
 0001:00006a50       ?stbi__mad2sizes_valid@@YAHHHH@Z 0000000140007a50 f   main_win.obj
 0001:00006ab0       ?stbi__mad3sizes_valid@@YAHHHHH@Z 0000000140007ab0 f   main_win.obj
 0001:00006b30       ?stbi__mad4sizes_valid@@YAHHHHHH@Z 0000000140007b30 f   main_win.obj
 0001:00006bd0       ?stbi__malloc_mad2@@YAPEAXHHH@Z 0000000140007bd0 f   main_win.obj
 0001:00006c20       ?stbi__malloc_mad3@@YAPEAXHHHH@Z 0000000140007c20 f   main_win.obj
 0001:00006c80       ?stbi__malloc_mad4@@YAPEAXHHHHH@Z 0000000140007c80 f   main_win.obj
 0001:00006cf0       ?stbi__ldr_to_hdr@@YAPEAMPEAEHHH@Z 0000000140007cf0 f   main_win.obj
 0001:00006ec0       ?stbi__hdr_to_ldr@@YAPEAEPEAMHHH@Z 0000000140007ec0 f   main_win.obj
 0001:000070f0       ?stbi__load_main@@YAPEAXPEAUstbi__context@@PEAH11HPEAUstbi__result_info@@H@Z 00000001400080f0 f   main_win.obj
 0001:00007430       ?stbi__convert_16_to_8@@YAPEAEPEAGHHH@Z 0000000140008430 f   main_win.obj
 0001:00007500       ?stbi__convert_8_to_16@@YAPEAGPEAEHHH@Z 0000000140008500 f   main_win.obj
 0001:000075e0       ?stbi__vertical_flip@@YAXPEAXHHH@Z 00000001400085e0 f   main_win.obj
 0001:00007780       ?stbi__vertical_flip_slices@@YAXPEAXHHHH@Z 0000000140008780 f   main_win.obj
 0001:00007810       ?stbi__load_and_postprocess_8bit@@YAPEAEPEAUstbi__context@@PEAH11H@Z 0000000140008810 f   main_win.obj
 0001:000079e0       ?stbi__load_and_postprocess_16bit@@YAPEAGPEAUstbi__context@@PEAH11H@Z 00000001400089e0 f   main_win.obj
 0001:00007bc0       ?stbi__float_postprocess@@YAXPEAMPEAH11H@Z 0000000140008bc0 f   main_win.obj
 0001:00007c90       ?stbi__fopen@@YAPEAU_iobuf@@PEBD0@Z 0000000140008c90 f   main_win.obj
 0001:00007cd0       ?stbi__loadf_main@@YAPEAMPEAUstbi__context@@PEAH11H@Z 0000000140008cd0 f   main_win.obj
 0001:00007e40       ?stbi__get8@@YAEPEAUstbi__context@@@Z 0000000140008e40 f   main_win.obj
 0001:00007ef0       ?stbi__at_eof@@YAHPEAUstbi__context@@@Z 0000000140008ef0 f   main_win.obj
 0001:00007f70       ?stbi__skip@@YAXPEAUstbi__context@@H@Z 0000000140008f70 f   main_win.obj
 0001:00008050       ?stbi__getn@@YAHPEAUstbi__context@@PEAEH@Z 0000000140009050 f   main_win.obj
 0001:000081b0       ?stbi__get16be@@YAHPEAUstbi__context@@@Z 00000001400091b0 f   main_win.obj
 0001:00008200       ?stbi__get32be@@YAIPEAUstbi__context@@@Z 0000000140009200 f   main_win.obj
 0001:00008240       ?stbi__get16le@@YAHPEAUstbi__context@@@Z 0000000140009240 f   main_win.obj
 0001:00008280       ?stbi__get32le@@YAIPEAUstbi__context@@@Z 0000000140009280 f   main_win.obj
 0001:000082c0       ?stbi__compute_y@@YAEHHH@Z 00000001400092c0 f   main_win.obj
 0001:000082f0       ?stbi__convert_format@@YAPEAEPEAEHHII@Z 00000001400092f0 f   main_win.obj
 0001:00008cec       $LN66                      0000000140009cec     main_win.obj
 0001:00008d60       ?stbi__compute_y_16@@YAGHHH@Z 0000000140009d60 f   main_win.obj
 0001:00008d90       ?stbi__convert_format16@@YAPEAGPEAGHHII@Z 0000000140009d90 f   main_win.obj
 0001:000097c0       $LN66                      000000014000a7c0     main_win.obj
 0001:00009830       ?stbi__build_huffman@@YAHPEAUstbi__huffman@@PEAH@Z 000000014000a830 f   main_win.obj
 0001:00009ac0       ?stbi__build_fast_ac@@YAXPEAFPEAUstbi__huffman@@@Z 000000014000aac0 f   main_win.obj
 0001:00009c40       ?stbi__grow_buffer_unsafe@@YAXPEAUstbi__jpeg@@@Z 000000014000ac40 f   main_win.obj
 0001:00009d50       ?stbi__jpeg_huff_decode@@YAHPEAUstbi__jpeg@@PEAUstbi__huffman@@@Z 000000014000ad50 f   main_win.obj
 0001:00009ff0       ?stbi__extend_receive@@YAHPEAUstbi__jpeg@@H@Z 000000014000aff0 f   main_win.obj
 0001:0000a0e0       ?stbi__jpeg_get_bits@@YAHPEAUstbi__jpeg@@H@Z 000000014000b0e0 f   main_win.obj
 0001:0000a1a0       ?stbi__jpeg_get_bit@@YAHPEAUstbi__jpeg@@@Z 000000014000b1a0 f   main_win.obj
 0001:0000a220       ?stbi__jpeg_decode_block@@YAHPEAUstbi__jpeg@@QEAFPEAUstbi__huffman@@2PEAFHPEAG@Z 000000014000b220 f   main_win.obj
 0001:0000a510       ?stbi__jpeg_decode_block_prog_dc@@YAHPEAUstbi__jpeg@@QEAFPEAUstbi__huffman@@H@Z 000000014000b510 f   main_win.obj
 0001:0000a6b0       ?stbi__jpeg_decode_block_prog_ac@@YAHPEAUstbi__jpeg@@QEAFPEAUstbi__huffman@@PEAF@Z 000000014000b6b0 f   main_win.obj
 0001:0000ad10       ?stbi__clamp@@YAEH@Z       000000014000bd10 f   main_win.obj
 0001:0000ad50       ?stbi__idct_block@@YAXPEAEHQEAF@Z 000000014000bd50 f   main_win.obj
 0001:0000b800       ?stbi__idct_simd@@YAXPEAEHQEAF@Z 000000014000c800 f   main_win.obj
 0001:0000e310       ?stbi__get_marker@@YAEPEAUstbi__jpeg@@@Z 000000014000f310 f   main_win.obj
 0001:0000e3a0       ?stbi__jpeg_reset@@YAXPEAUstbi__jpeg@@@Z 000000014000f3a0 f   main_win.obj
 0001:0000e4a0       ?stbi__parse_entropy_coded_data@@YAHPEAUstbi__jpeg@@@Z 000000014000f4a0 f   main_win.obj
 0001:0000f100       ?stbi__jpeg_dequantize@@YAXPEAFPEAG@Z 0000000140010100 f   main_win.obj
 0001:0000f160       ?stbi__jpeg_finish@@YAXPEAUstbi__jpeg@@@Z 0000000140010160 f   main_win.obj
 0001:0000f330       ?stbi__process_marker@@YAHPEAUstbi__jpeg@@H@Z 0000000140010330 f   main_win.obj
 0001:0000f9f0       ?stbi__process_scan_header@@YAHPEAUstbi__jpeg@@@Z 00000001400109f0 f   main_win.obj
 0001:0000fd30       ?stbi__free_jpeg_components@@YAHPEAUstbi__jpeg@@HH@Z 0000000140010d30 f   main_win.obj
 0001:0000fea0       ?stbi__process_frame_header@@YAHPEAUstbi__jpeg@@H@Z 0000000140010ea0 f   main_win.obj
 0001:000107c0       ?stbi__decode_jpeg_header@@YAHPEAUstbi__jpeg@@H@Z 00000001400117c0 f   main_win.obj
 0001:00010920       ?stbi__decode_jpeg_image@@YAHPEAUstbi__jpeg@@@Z 0000000140011920 f   main_win.obj
 0001:00010b10       ?resample_row_1@@YAPEAEPEAE00HH@Z 0000000140011b10 f   main_win.obj
 0001:00010b30       ?stbi__resample_row_v_2@@YAPEAEPEAE00HH@Z 0000000140011b30 f   main_win.obj
 0001:00010bb0       ?stbi__resample_row_h_2@@YAPEAEPEAE00HH@Z 0000000140011bb0 f   main_win.obj
 0001:00010d90       ?stbi__resample_row_hv_2@@YAPEAEPEAE00HH@Z 0000000140011d90 f   main_win.obj
 0001:00010f20       ?stbi__resample_row_hv_2_simd@@YAPEAEPEAE00HH@Z 0000000140011f20 f   main_win.obj
 0001:00011590       ?stbi__resample_row_generic@@YAPEAEPEAE00HH@Z 0000000140012590 f   main_win.obj
 0001:00011620       ?stbi__YCbCr_to_RGB_row@@YAXPEAEPEBE11HH@Z 0000000140012620 f   main_win.obj
 0001:000117f0       ?stbi__YCbCr_to_RGB_simd@@YAXPEAEPEBE11HH@Z 00000001400127f0 f   main_win.obj
 0001:00011fc0       ?stbi__setup_jpeg@@YAXPEAUstbi__jpeg@@@Z 0000000140012fc0 f   main_win.obj
 0001:00012050       ?stbi__cleanup_jpeg@@YAXPEAUstbi__jpeg@@@Z 0000000140013050 f   main_win.obj
 0001:00012080       ?stbi__blinn_8x8@@YAEEE@Z  0000000140013080 f   main_win.obj
 0001:000120c0       ?load_jpeg_image@@YAPEAEPEAUstbi__jpeg@@PEAH11H@Z 00000001400130c0 f   main_win.obj
 0001:00013270       ?stbi__jpeg_info_raw@@YAHPEAUstbi__jpeg@@PEAH11@Z 0000000140014270 f   main_win.obj
 0001:00013330       ?stbi__bitreverse16@@YAHH@Z 0000000140014330 f   main_win.obj
 0001:000133c0       ?stbi__bit_reverse@@YAHHH@Z 00000001400143c0 f   main_win.obj
 0001:00013410       ?stbi__zbuild_huffman@@YAHPEAUstbi__zhuffman@@PEBEH@Z 0000000140014410 f   main_win.obj
 0001:000137a0       ?stbi__zeof@@YAHPEAUstbi__zbuf@@@Z 00000001400147a0 f   main_win.obj
 0001:000137e0       ?stbi__zget8@@YAEPEAUstbi__zbuf@@@Z 00000001400147e0 f   main_win.obj
 0001:00013840       ?stbi__fill_bits@@YAXPEAUstbi__zbuf@@@Z 0000000140014840 f   main_win.obj
 0001:000138e0       ?stbi__zreceive@@YAIPEAUstbi__zbuf@@H@Z 00000001400148e0 f   main_win.obj
 0001:00013980       ?stbi__zhuffman_decode_slowpath@@YAHPEAUstbi__zbuf@@PEAUstbi__zhuffman@@@Z 0000000140014980 f   main_win.obj
 0001:00013ab0       ?stbi__zhuffman_decode@@YAHPEAUstbi__zbuf@@PEAUstbi__zhuffman@@@Z 0000000140014ab0 f   main_win.obj
 0001:00013b80       ?stbi__zexpand@@YAHPEAUstbi__zbuf@@PEADH@Z 0000000140014b80 f   main_win.obj
 0001:00013cd0       ?stbi__parse_huffman_block@@YAHPEAUstbi__zbuf@@@Z 0000000140014cd0 f   main_win.obj
 0001:00013fa0       ?stbi__compute_huffman_codes@@YAHPEAUstbi__zbuf@@@Z 0000000140014fa0 f   main_win.obj
 0001:000142c0       ?stbi__parse_uncompressed_block@@YAHPEAUstbi__zbuf@@@Z 00000001400152c0 f   main_win.obj
 0001:000144c0       ?stbi__parse_zlib_header@@YAHPEAUstbi__zbuf@@@Z 00000001400154c0 f   main_win.obj
 0001:00014580       ?stbi__parse_zlib@@YAHPEAUstbi__zbuf@@H@Z 0000000140015580 f   main_win.obj
 0001:000146b0       ?stbi__do_zlib@@YAHPEAUstbi__zbuf@@PEADHHH@Z 00000001400156b0 f   main_win.obj
 0001:00014730       ?stbi__get_chunk_header@@YA?AUstbi__pngchunk@@PEAUstbi__context@@@Z 0000000140015730 f   main_win.obj
 0001:00014770       ?stbi__check_png_header@@YAHPEAUstbi__context@@@Z 0000000140015770 f   main_win.obj
 0001:000147e0       ?stbi__paeth@@YAHHHH@Z     00000001400157e0 f   main_win.obj
 0001:00014880       ?stbi__create_png_image_raw@@YAHPEAUstbi__png@@PEAEIHIIHH@Z 0000000140015880 f   main_win.obj
 0001:00016090       $LN168                     0000000140017090     main_win.obj
 0001:000160ac       $LN167                     00000001400170ac     main_win.obj
 0001:000160c8       $LN166                     00000001400170c8     main_win.obj
 0001:000160f0       ?stbi__create_png_image@@YAHPEAUstbi__png@@PEAEIHHHH@Z 00000001400170f0 f   main_win.obj
 0001:000165f0       ?stbi__compute_transparency@@YAHPEAUstbi__png@@QEAEH@Z 00000001400175f0 f   main_win.obj
 0001:000167c0       ?stbi__compute_transparency16@@YAHPEAUstbi__png@@QEAGH@Z 00000001400177c0 f   main_win.obj
 0001:00016990       ?stbi__expand_png_palette@@YAHPEAUstbi__png@@PEAEHH@Z 0000000140017990 f   main_win.obj
 0001:00016c20       ?stbi__de_iphone@@YAXPEAUstbi__png@@@Z 0000000140017c20 f   main_win.obj
 0001:00016f50       ?stbi__parse_png_file@@YAHPEAUstbi__png@@HH@Z 0000000140017f50 f   main_win.obj
 0001:00017cc0       ?stbi__do_png@@YAPEAXPEAUstbi__png@@PEAH11HPEAUstbi__result_info@@@Z 0000000140018cc0 f   main_win.obj
 0001:00017f10       ?stbi__png_info_raw@@YAHPEAUstbi__png@@PEAH11@Z 0000000140018f10 f   main_win.obj
 0001:00017fb0       ?stbi__bmp_test_raw@@YAHPEAUstbi__context@@@Z 0000000140018fb0 f   main_win.obj
 0001:00018070       ?stbi__high_bit@@YAHI@Z    0000000140019070 f   main_win.obj
 0001:00018120       ?stbi__bitcount@@YAHI@Z    0000000140019120 f   main_win.obj
 0001:000181b0       ?stbi__shiftsigned@@YAHIHH@Z 00000001400191b0 f   main_win.obj
 0001:00018290       ?stbi__bmp_set_mask_defaults@@YAHPEAUstbi__bmp_data@@H@Z 0000000140019290 f   main_win.obj
 0001:00018370       ?stbi__bmp_parse_header@@YAPEAXPEAUstbi__context@@PEAUstbi__bmp_data@@@Z 0000000140019370 f   main_win.obj
 0001:000188d0       ?stbi__tga_get_comp@@YAHHHPEAH@Z 00000001400198d0 f   main_win.obj
 0001:00018970       ?stbi__tga_read_rgb16@@YAXPEAUstbi__context@@PEAE@Z 0000000140019970 f   main_win.obj
 0001:00018a40       ?stbi__psd_decode_rle@@YAHPEAUstbi__context@@PEAEH@Z 0000000140019a40 f   main_win.obj
 0001:00018b90       ?stbi__pic_is4@@YAHPEAUstbi__context@@PEBD@Z 0000000140019b90 f   main_win.obj
 0001:00018bf0       ?stbi__pic_test_core@@YAHPEAUstbi__context@@@Z 0000000140019bf0 f   main_win.obj
 0001:00018c70       ?stbi__readval@@YAPEAEPEAUstbi__context@@HPEAE@Z 0000000140019c70 f   main_win.obj
 0001:00018d20       ?stbi__copyval@@YAXHPEAEPEBE@Z 0000000140019d20 f   main_win.obj
 0001:00018da0       ?stbi__pic_load_core@@YAPEAEPEAUstbi__context@@HHPEAHPEAE@Z 0000000140019da0 f   main_win.obj
 0001:000193e0       ?stbi__gif_test_raw@@YAHPEAUstbi__context@@@Z 000000014001a3e0 f   main_win.obj
 0001:00019480       ?stbi__gif_parse_colortable@@YAXPEAUstbi__context@@QEAY03EHH@Z 000000014001a480 f   main_win.obj
 0001:00019580       ?stbi__gif_header@@YAHPEAUstbi__context@@PEAUstbi__gif@@PEAHH@Z 000000014001a580 f   main_win.obj
 0001:000197a0       ?stbi__gif_info_raw@@YAHPEAUstbi__context@@PEAH11@Z 000000014001a7a0 f   main_win.obj
 0001:00019860       ?stbi__out_gif_code@@YAXPEAUstbi__gif@@G@Z 000000014001a860 f   main_win.obj
 0001:00019b00       ?stbi__process_gif_raster@@YAPEAEPEAUstbi__context@@PEAUstbi__gif@@@Z 000000014001ab00 f   main_win.obj
 0001:00019f50       ?stbi__gif_load_next@@YAPEAEPEAUstbi__context@@PEAUstbi__gif@@PEAHHPEAE@Z 000000014001af50 f   main_win.obj
 0001:0001a920       ?stbi__load_gif_main_outofmem@@YAPEAXPEAUstbi__gif@@PEAEPEAPEAH@Z 000000014001b920 f   main_win.obj
 0001:0001a9d0       ?stbi__hdr_test_core@@YAHPEAUstbi__context@@PEBD@Z 000000014001b9d0 f   main_win.obj
 0001:0001aa50       ?stbi__hdr_gettoken@@YAPEADPEAUstbi__context@@PEAD@Z 000000014001ba50 f   main_win.obj
 0001:0001ab10       ?stbi__hdr_convert@@YAXPEAMPEAEH@Z 000000014001bb10 f   main_win.obj
 0001:0001ad80       ?stbi__pnm_isspace@@YAHD@Z 000000014001bd80 f   main_win.obj
 0001:0001adf0       ?stbi__pnm_skip_whitespace@@YAXPEAUstbi__context@@PEAD@Z 000000014001bdf0 f   main_win.obj
 0001:0001aea0       ?stbi__pnm_isdigit@@YAHD@Z 000000014001bea0 f   main_win.obj
 0001:0001aee0       ?stbi__pnm_getinteger@@YAHPEAUstbi__context@@PEAD@Z 000000014001bee0 f   main_win.obj
 0001:0001af50       ?stbi__info_main@@YAHPEAUstbi__context@@PEAH11@Z 000000014001bf50 f   main_win.obj
 0001:0001b0e0       ?stbi__is_16_main@@YAHPEAUstbi__context@@@Z 000000014001c0e0 f   main_win.obj
 0001:0001b240       ?newLogEvent@@YA?AUlogEvent@@PEBD0HH@Z 000000014001c240 f   main_win.obj
 0001:0001c480       ?v2Copy@@YAXPEAM0@Z        000000014001d480 f   main_win.obj
 0001:0001c4e0       ?f32Equal@@YACMM@Z         000000014001d4e0 f   main_win.obj
 0001:0001c540       ?v2DistanceSquare@@YAMPEAM@Z 000000014001d540 f   main_win.obj
 0001:0001c5a0       ?v2DistanceSquare2@@YAMPEAM0@Z 000000014001d5a0 f   main_win.obj
 0001:0001c660       ?v2Add@@YAXPEAM0@Z         000000014001d660 f   main_win.obj
 0001:0001c6f0       ?v2Subtract@@YAXPEAM0@Z    000000014001d6f0 f   main_win.obj
 0001:0001c780       ?v2Mult@@YAXPEAMM@Z        000000014001d780 f   main_win.obj
 0001:0001c7f0       ?v2Distance@@YAMPEAM@Z     000000014001d7f0 f   main_win.obj
 0001:0001c860       ?v2Normalize@@YAXPEAM@Z    000000014001d860 f   main_win.obj
 0001:0001c8e0       ?m2Rotate@@YAXPEAMM@Z      000000014001d8e0 f   main_win.obj
 0001:0001c990       ?m2MultiplyPoint@@YAXPEAM0@Z 000000014001d990 f   main_win.obj
 0001:0001ca70       ?mathAtan2@@YAMMM@Z        000000014001da70 f   main_win.obj
 0001:0001f3f0       ?TileMapTileByPosition@@YAHPEAUTileMap@@PEAM@Z 00000001400203f0 f   main_win.obj
 0001:0001f490       ?TileMapInit@@YAXPEAUTileMap@@PEAUTexture@@IIII@Z 0000000140020490 f   main_win.obj
 0001:0001f520       ?TileMapUVByIdx@@YAXPEAMPEAUTileMap@@H@Z 0000000140020520 f   main_win.obj
 0001:00021230       ?app_init@@YA_NPEAUScene@@@Z 0000000140022230 f   main_win.obj
 0001:00021a10       ?app_update@@YAXPEAUScene@@M@Z 0000000140022a10 f   main_win.obj
 0001:000230b0       ?app_input@@YAXPEAUScene@@TSDL_Event@@@Z 00000001400240b0 f   main_win.obj
 0001:000230d0       ?AppClean@@YAXPEAUScene@@@Z 00000001400240d0 f   main_win.obj
 0001:00023100       ?DrawTileMapLayer@@YAXPEAURendererEx@@PEAUTileMap@@@Z 0000000140024100 f   main_win.obj
 0001:000232a0       ?init@@YA_NXZ              00000001400242a0 f   main_win.obj
 0001:00023460       ?clean@@YAXPEAUScene@@@Z   0000000140024460 f   main_win.obj
 0001:00026648       capture_current_context    0000000140027648 f   LIBCMT:gs_report.obj
 0001:000266b8       capture_previous_context   00000001400276b8 f   LIBCMT:gs_report.obj
 0001:000267b0       $$000000                   00000001400277b0     LIBCMT:chkstk.obj
 0001:00026810       $$000000                   0000000140027810     LIBCMT:amdsecgs.obj
 0001:00026840       ?pre_c_initialization@@YAHXZ 0000000140027840 f   LIBCMT:exe_winmain.obj
 0001:000268f8       ?post_pgo_initialization@@YAHXZ 00000001400278f8 f   LIBCMT:exe_winmain.obj
 0001:00026908       ?pre_cpp_initialization@@YAXXZ 0000000140027908 f   LIBCMT:exe_winmain.obj
 0001:00026924       ?__scrt_common_main_seh@@YAHXZ 0000000140027924 f   LIBCMT:exe_winmain.obj
 0001:00026dcc       initialize_environment     0000000140027dcc f   libucrt:initialization.obj
 0001:00026dcc       initialize_global_state_isolation 0000000140027dcc f   libucrt:initialization.obj
 0001:00026dcc       report_memory_leaks        0000000140027dcc f   libucrt:initialization.obj
 0001:00026dcc       uninitialize_c             0000000140027dcc f   libucrt:initialization.obj
 0001:00026dcc       uninitialize_global_state_isolation 0000000140027dcc f   libucrt:initialization.obj
 0001:00027670       $$000000                   0000000140028670     libvcruntime:memset.obj
 0001:00027a30       $$000000                   0000000140028a30     libvcruntime:notify.obj
 0001:00027c94       ?try_get_function@@YAPEAXW4function_id@?A0x14174aea@@QEBDQEBW4module_id@2@2@Z 0000000140028c94 f   libvcruntime:winapi_downlevel.obj
 0001:00028540       $$000000                   0000000140029540     libvcruntime:memcpy.obj
 0001:00028cf4       ??$BuildCatchObjectHelperInternal@V__FrameHandler3@@@@YAHPEAUEHExceptionRecord@@PEAXPEBU_s_HandlerType@@PEBU_s_CatchableType@@@Z 0000000140029cf4 f   libvcruntime:frame.obj
 0001:00028ef4       ??$BuildCatchObjectInternal@V__FrameHandler3@@@@YAXPEAUEHExceptionRecord@@PEAXPEBU_s_HandlerType@@PEBU_s_CatchableType@@@Z 0000000140029ef4 f   libvcruntime:frame.obj
 0001:00028fb4       ??$CatchIt@V__FrameHandler3@@@@YAXPEAUEHExceptionRecord@@PEA_KPEAU_CONTEXT@@PEAU_xDISPATCHER_CONTEXT@@PEBU_s_FuncInfo@@PEBU_s_HandlerType@@PEBU_s_CatchableType@@PEBU_s_TryBlockMapEntry@@H1EE@Z 0000000140029fb4 f   libvcruntime:frame.obj
 0001:00029088       ??$FindHandler@V__FrameHandler3@@@@YAXPEAUEHExceptionRecord@@PEA_KPEAU_CONTEXT@@PEAU_xDISPATCHER_CONTEXT@@PEBU_s_FuncInfo@@EH1@Z 000000014002a088 f   libvcruntime:frame.obj
 0001:00029560       ??$FindHandlerForForeignException@V__FrameHandler3@@@@YAXPEAUEHExceptionRecord@@PEA_KPEAU_CONTEXT@@PEAU_xDISPATCHER_CONTEXT@@PEBU_s_FuncInfo@@HH1@Z 000000014002a560 f   libvcruntime:frame.obj
 0001:00029dd0       ?ExFilterRethrow@@YAHPEAU_EXCEPTION_POINTERS@@PEAUEHExceptionRecord@@PEAH@Z 000000014002add0 f   libvcruntime:frame.obj
 0001:0002a07c       ?IsInExceptionSpec@@YAEPEAUEHExceptionRecord@@PEBU_s_ESTypeList@@@Z 000000014002b07c f   libvcruntime:frame.obj
 0001:0002a16c       ?Is_bad_exception_allowed@@YAEPEBU_s_ESTypeList@@@Z 000000014002b16c f   libvcruntime:frame.obj
 0001:0002a230       $$000000                   000000014002b230     libvcruntime:handlers.obj
 0001:0002a4c0       $$000000                   000000014002b4c0     libucrt:strncmp.obj
 0001:0002b148       ??$common_fsopen@D@@YAPEAU_iobuf@@QEBD0H@Z 000000014002c148 f   libucrt:fopen.obj
 0001:0002b25c       ?_fclose_internal@@YAHQEAU_iobuf@@AEAV__crt_cached_ptd_host@@@Z 000000014002c25c f   libucrt:fclose.obj
 0001:0002b2d8       ?_fclose_nolock_internal@@YAHQEAU_iobuf@@AEAV__crt_cached_ptd_host@@@Z 000000014002c2d8 f   libucrt:fclose.obj
 0001:0002b46c       ??$?RV<lambda_842d9ff0dc9ef11c61343bbaebe7f885>@@AEAV<lambda_c5860995281e5c4ce005b3de8f5874ee>@@V<lambda_d90129c13df834fdcbf8d2b88dafcf2d>@@@?$__crt_seh_guarded_call@X@@QEAAX$$QEAV<lambda_842d9ff0dc9ef11c61343bbaebe7f885>@@AEAV<lambda_c5860995281e5c4ce005b3de8f5874ee>@@$$QEAV<lambda_d90129c13df834fdcbf8d2b88dafcf2d>@@@Z 000000014002c46c f   libucrt:fflush.obj
 0001:0002b508       ??$?RV<lambda_886d6c58226a84441f68b9f2b8217b83>@@AEAV<lambda_ab61a845afdef5b7c387490eaf3616ee>@@V<lambda_f7f22ab5edc0698d5f6905b0d3f44752>@@@?$__crt_seh_guarded_call@X@@QEAAX$$QEAV<lambda_886d6c58226a84441f68b9f2b8217b83>@@AEAV<lambda_ab61a845afdef5b7c387490eaf3616ee>@@$$QEAV<lambda_f7f22ab5edc0698d5f6905b0d3f44752>@@@Z 000000014002c508 f   libucrt:fflush.obj
 0001:0002b5e8       ??$?RV<lambda_c376a267cfb53b6959b3b692ec76b120>@@AEAV<lambda_9a32fed5bf61b6b509b2d3f6003082a1>@@V<lambda_572fbb9fa0ab338edf41edfd4b5fcc8d>@@@?$__crt_seh_guarded_call@H@@QEAAH$$QEAV<lambda_c376a267cfb53b6959b3b692ec76b120>@@AEAV<lambda_9a32fed5bf61b6b509b2d3f6003082a1>@@$$QEAV<lambda_572fbb9fa0ab338edf41edfd4b5fcc8d>@@@Z 000000014002c5e8 f   libucrt:fflush.obj
 0001:0002b628       ?common_flush_all@@YAH_N@Z 000000014002c628 f   libucrt:fflush.obj
 0001:0002bce4       ?common_fseek@@YAHV__crt_stdio_stream@@_JHAEAV__crt_cached_ptd_host@@@Z 000000014002cce4 f   libucrt:fseek.obj
 0001:0002bd78       ?common_fseek_binary_mode_read_only_fast_track_nolock@@YA_NV__crt_stdio_stream@@_JH@Z 000000014002cd78 f   libucrt:fseek.obj
 0001:0002be5c       ?common_fseek_nolock@@YAHV__crt_stdio_stream@@_JHAEAV__crt_cached_ptd_host@@@Z 000000014002ce5c f   libucrt:fseek.obj
 0001:0002bfd0       ??$common_ftell@J@@YAJV__crt_stdio_stream@@AEAV__crt_cached_ptd_host@@@Z 000000014002cfd0 f   libucrt:ftell.obj
 0001:0002c060       ??$common_ftell_nolock@_J@@YA_JV__crt_stdio_stream@@AEAV__crt_cached_ptd_host@@@Z 000000014002d060 f   libucrt:ftell.obj
 0001:0002c1ac       ?common_ftell_read_mode_nolock@@YA_JV__crt_stdio_stream@@_J1AEAV__crt_cached_ptd_host@@@Z 000000014002d1ac f   libucrt:ftell.obj
 0001:0002c304       ?common_ftell_translated_utf8_nolock@@YA_JV__crt_stdio_stream@@_JAEAV__crt_cached_ptd_host@@@Z 000000014002d304 f   libucrt:ftell.obj
 0001:0002c488       ?count_newline_bytes@@YA_JQEBD0W4__crt_lowio_text_mode@@@Z 000000014002d488 f   libucrt:ftell.obj
 0001:0002c6f8       ??$?RV<lambda_613eff765f5c257adf68e381dfe80f05>@@AEAV<lambda_ebf663be9fcd9e0b17ed57bdb95b0759>@@V<lambda_872abebd861b7db59b42e49ea65623b0>@@@?$__crt_seh_guarded_call@H@@QEAAH$$QEAV<lambda_613eff765f5c257adf68e381dfe80f05>@@AEAV<lambda_ebf663be9fcd9e0b17ed57bdb95b0759>@@$$QEAV<lambda_872abebd861b7db59b42e49ea65623b0>@@@Z 000000014002d6f8 f   libucrt:output.obj
 0001:0002c738       ??$?RV<lambda_d854c62834386a3b23916ad6dae2782d>@@AEAV<lambda_303760bc4008a2b3ec4768a30b06a80c>@@V<lambda_4780a7ea4f8cbd2590aec34bd14e2bbf>@@@?$__crt_seh_guarded_call@H@@QEAAH$$QEAV<lambda_d854c62834386a3b23916ad6dae2782d>@@AEAV<lambda_303760bc4008a2b3ec4768a30b06a80c>@@$$QEAV<lambda_4780a7ea4f8cbd2590aec34bd14e2bbf>@@@Z 000000014002d738 f   libucrt:output.obj
 0001:0002c778       ??$common_vsprintf@Vformat_validation_base@__crt_stdio_output@@D@@YAH_KQEAD0QEBDAEAV__crt_cached_ptd_host@@1@Z 000000014002d778 f   libucrt:output.obj
 0001:0002e774       ??R<lambda_303760bc4008a2b3ec4768a30b06a80c>@@QEBAHXZ 000000014002f774 f   libucrt:output.obj
 0001:0002e890       ??R<lambda_ebf663be9fcd9e0b17ed57bdb95b0759>@@QEBAHXZ 000000014002f890 f   libucrt:output.obj
 0001:00037eb0       memcpy_s                   0000000140038eb0 f   libucrt:cfout.obj
 0001:00037eb0       memcpy_s                   0000000140038eb0 f   libucrt:input.obj
 0001:00037f38       ??$common_assert_to_message_box@_W@@YAXQEB_W0IQEAX@Z 0000000140038f38 f   libucrt:assert.obj
 0001:00037ffc       ??$common_assert_to_message_box_build_string@_W@@YAXQEA_W_KQEB_W2IQEAX@Z 0000000140038ffc f   libucrt:assert.obj
 0001:00038510       ??$common_assert_to_stderr@_W@@YAXQEB_W0I@Z 0000000140039510 f   libucrt:assert.obj
 0001:000385dc       ?common_assert_to_stderr_direct@@YAXQEB_W0I@Z 00000001400395dc f   libucrt:assert.obj
 0001:000386b4       ?get_assert_format@@YAPEB_W_W@Z 00000001400396b4 f   libucrt:assert.obj
 0001:00038bc0       $$000000                   0000000140039bc0     libucrt:cosf.obj
 0001:00039300       $$000000                   000000014003a300     libucrt:powf.obj
 0001:0003a1d0       $$000000                   000000014003b1d0     libucrt:sinf.obj
 0001:0003a970       $$000000                   000000014003b970     libucrt:tanf.obj
 0001:0003b200       ??$parse_command_line@D@@YAXPEADPEAPEAD0PEA_K2@Z 000000014003c200 f   libucrt:argv_parsing.obj
 0001:0003b5a8       ??$common_initialize_environment_nolock@D@@YAHXZ 000000014003c5a8 f   libucrt:environment_initialization.obj
 0001:0003b61c       ??$create_environment@D@@YAQEAPEADQEAD@Z 000000014003c61c f   libucrt:environment_initialization.obj
 0001:0003b72c       ??$free_environment@D@@YAXQEAPEAD@Z 000000014003c72c f   libucrt:environment_initialization.obj
 0001:0003b72c       ??$free_environment@_W@@YAXQEAPEA_W@Z 000000014003c72c f   libucrt:environment_initialization.obj
 0001:0003b770       ??$uninitialize_environment_internal@D@@YAXAEAPEAPEAD@Z 000000014003c770 f   libucrt:environment_initialization.obj
 0001:0003b78c       ??$uninitialize_environment_internal@_W@@YAXAEAPEAPEA_W@Z 000000014003c78c f   libucrt:environment_initialization.obj
 0001:0003b8f0       ??$?RV<lambda_d80eeec6fff315bfe5c115232f3240e3>@@AEAV<lambda_6e4b09c48022b2350581041d5f6b0c4c>@@V<lambda_2358e3775559c9db80273638284d5e45>@@@?$__crt_seh_guarded_call@X@@QEAAX$$QEAV<lambda_d80eeec6fff315bfe5c115232f3240e3>@@AEAV<lambda_6e4b09c48022b2350581041d5f6b0c4c>@@$$QEAV<lambda_2358e3775559c9db80273638284d5e45>@@@Z 000000014003c8f0 f   libucrt:exit.obj
 0001:0003b928       ??R<lambda_6e4b09c48022b2350581041d5f6b0c4c>@@QEBA@XZ 000000014003c928 f   libucrt:exit.obj
 0001:0003b9f4       ?common_exit@@YAXHW4_crt_exit_cleanup_mode@@W4_crt_exit_return_mode@@@Z 000000014003c9f4 f   libucrt:exit.obj
 0001:0003babc       ?exit_or_terminate_process@@YAXI@Z 000000014003cabc f   libucrt:exit.obj
 0001:0003baf0       ?should_call_terminate_process@@YA_NXZ 000000014003caf0 f   libucrt:exit.obj
 0001:0003bb20       ?try_cor_exit_process@@YAXI@Z 000000014003cb20 f   libucrt:exit.obj
 0001:0003bd60       ??$?RV<lambda_410d79af7f07d98d83a3f525b3859a53>@@AEAV<lambda_3e16ef9562a7dcce91392c22ab16ea36>@@V<lambda_38119f0e861e05405d8a144b9b982f0a>@@@?$__crt_seh_guarded_call@X@@QEAAX$$QEAV<lambda_410d79af7f07d98d83a3f525b3859a53>@@AEAV<lambda_3e16ef9562a7dcce91392c22ab16ea36>@@$$QEAV<lambda_38119f0e861e05405d8a144b9b982f0a>@@@Z 000000014003cd60 f   libucrt:wsetlocale.obj
 0001:0003beb4       ??$?RV<lambda_638799b9deba96c50f710eeac98168cd>@@AEAV<lambda_22ebabd17bc4fa466a2aca6d8deb888d>@@V<lambda_a6f7d7db0129f75315ebf26d50c089f1>@@@?$__crt_seh_guarded_call@H@@QEAAH$$QEAV<lambda_638799b9deba96c50f710eeac98168cd>@@AEAV<lambda_22ebabd17bc4fa466a2aca6d8deb888d>@@$$QEAV<lambda_a6f7d7db0129f75315ebf26d50c089f1>@@@Z 000000014003ceb4 f   libucrt:onexit.obj
 0001:0003bef0       ??$?RV<lambda_7777bce6b2f8c936911f934f8298dc43>@@AEAV<lambda_f03950bc5685219e0bcd2087efbe011e>@@V<lambda_3883c3dff614d5e0c5f61bb1ac94921c>@@@?$__crt_seh_guarded_call@H@@QEAAH$$QEAV<lambda_7777bce6b2f8c936911f934f8298dc43>@@AEAV<lambda_f03950bc5685219e0bcd2087efbe011e>@@$$QEAV<lambda_3883c3dff614d5e0c5f61bb1ac94921c>@@@Z 000000014003cef0 f   libucrt:onexit.obj
 0001:0003bf2c       ??R<lambda_22ebabd17bc4fa466a2aca6d8deb888d>@@QEBAHXZ 000000014003cf2c f   libucrt:onexit.obj
 0001:0003c0dc       ??R<lambda_f03950bc5685219e0bcd2087efbe011e>@@QEBAHXZ 000000014003d0dc f   libucrt:onexit.obj
 0001:0003c2c0       initialize_global_variables 000000014003d2c0 f   libucrt:initialization.obj
 0001:0003c2d4       initialize_c               000000014003d2d4 f   libucrt:initialization.obj
 0001:0003c2f8       uninitialize_environment   000000014003d2f8 f   libucrt:initialization.obj
 0001:0003c308       initialize_pointers        000000014003d308 f   libucrt:initialization.obj
 0001:0003c348       uninitialize_vcruntime     000000014003d348 f   libucrt:initialization.obj
 0001:0003c350       uninitialize_allocated_memory 000000014003d350 f   libucrt:initialization.obj
 0001:0003c390       uninitialize_allocated_io_buffers 000000014003d390 f   libucrt:initialization.obj
 0001:0003cd5c       ??$?RV<lambda_0ae27a3a962d80f24befdcbee591983d>@@AEAV<lambda_8d0ee55de4b1038c4002e0adecdf1839>@@V<lambda_dc504788e8f1664fe9b84e20bfb512f2>@@@?$__crt_seh_guarded_call@X@@QEAAX$$QEAV<lambda_0ae27a3a962d80f24befdcbee591983d>@@AEAV<lambda_8d0ee55de4b1038c4002e0adecdf1839>@@$$QEAV<lambda_dc504788e8f1664fe9b84e20bfb512f2>@@@Z 000000014003dd5c f   libucrt:per_thread_data.obj
 0001:0003cd9c       ??$?RV<lambda_2d41944a1d46af3157314b8a01080d33>@@AEAV<lambda_8f455de75cd7d7f24b4096f044d8b9e6>@@V<lambda_aa500f224e6afead328df44964fe2772>@@@?$__crt_seh_guarded_call@X@@QEAAX$$QEAV<lambda_2d41944a1d46af3157314b8a01080d33>@@AEAV<lambda_8f455de75cd7d7f24b4096f044d8b9e6>@@$$QEAV<lambda_aa500f224e6afead328df44964fe2772>@@@Z 000000014003dd9c f   libucrt:per_thread_data.obj
 0001:0003cddc       ??$?RV<lambda_aa87e3671a710a21b5dc78c0bdf72e11>@@AEAV<lambda_92619d2358a28f41a33ba319515a20b9>@@V<lambda_6992ecaafeb10aed2b74cb1fae11a551>@@@?$__crt_seh_guarded_call@X@@QEAAX$$QEAV<lambda_aa87e3671a710a21b5dc78c0bdf72e11>@@AEAV<lambda_92619d2358a28f41a33ba319515a20b9>@@$$QEAV<lambda_6992ecaafeb10aed2b74cb1fae11a551>@@@Z 000000014003dddc f   libucrt:per_thread_data.obj
 0001:0003ce24       ??$?RV<lambda_f2e299630e499de9f9a165e60fcd3db5>@@AEAV<lambda_2ae9d31cdba2644fcbeaf08da7c24588>@@V<lambda_40d01ff24d0e7b3814fdbdcee8eab3c7>@@@?$__crt_seh_guarded_call@X@@QEAAX$$QEAV<lambda_f2e299630e499de9f9a165e60fcd3db5>@@AEAV<lambda_2ae9d31cdba2644fcbeaf08da7c24588>@@$$QEAV<lambda_40d01ff24d0e7b3814fdbdcee8eab3c7>@@@Z 000000014003de24 f   libucrt:per_thread_data.obj
 0001:0003ce84       ?construct_ptd_array@@YAXQEAU__acrt_ptd@@@Z 000000014003de84 f   libucrt:per_thread_data.obj
 0001:0003cf54       ?destroy_fls@@YAXPEAX@Z    000000014003df54 f   libucrt:per_thread_data.obj
 0001:0003cf74       ?destroy_ptd_array@@YAXQEAU__acrt_ptd@@@Z 000000014003df74 f   libucrt:per_thread_data.obj
 0001:0003d06c       ?replace_current_thread_locale_nolock@@YAXQEAU__acrt_ptd@@QEAU__crt_locale_data@@@Z 000000014003e06c f   libucrt:per_thread_data.obj
 0001:0003e03c       ?try_get_function@@YAPEAXW4function_id@?A0x391cf84c@@QEBDQEBW4module_id@2@2@Z 000000014003f03c f   libucrt:winapi_thunks.obj
 0001:0003e8d8       ?initialize_inherited_file_handles_nolock@@YAXXZ 000000014003f8d8 f   libucrt:ioinit.obj
 0001:0003e9c8       ?initialize_stdio_handles_nolock@@YAXXZ 000000014003f9c8 f   libucrt:ioinit.obj
 0001:0003ebc0       ?find_or_allocate_unused_stream_nolock@@YA?AV__crt_stdio_stream@@XZ 000000014003fbc0 f   libucrt:stream.obj
 0001:0003f034       ??$?RV<lambda_ad8af0d99a0adf03d037d7dffe354bb5>@@AEAV<lambda_c9ba49e555ba839a7b07aa3fbecb7617>@@V<lambda_2f1ebd5d68526518146ae959c9e734c8>@@@?$__crt_seh_guarded_call@H@@QEAAH$$QEAV<lambda_ad8af0d99a0adf03d037d7dffe354bb5>@@AEAV<lambda_c9ba49e555ba839a7b07aa3fbecb7617>@@$$QEAV<lambda_2f1ebd5d68526518146ae959c9e734c8>@@@Z 0000000140040034 f   libucrt:close.obj
 0001:0003f390       ??$?RV<lambda_a37b2b86f63e897a80ea819b0eb08c01>@@AEAV<lambda_38ce7e780aa69e748d6df282ebc68efe>@@V<lambda_99fb1378e971ab6e7edea83e3a7a83a2>@@@?$__crt_seh_guarded_call@H@@QEAAH$$QEAV<lambda_a37b2b86f63e897a80ea819b0eb08c01>@@AEAV<lambda_38ce7e780aa69e748d6df282ebc68efe>@@$$QEAV<lambda_99fb1378e971ab6e7edea83e3a7a83a2>@@@Z 0000000140040390 f   libucrt:commit.obj
 0001:0003f4b0       ?write_double_translated_ansi_nolock@@YA?AUwrite_result@?A0x17268360@@HQEBDIAEAV__crt_cached_ptd_host@@@Z 00000001400404b0 f   libucrt:write.obj
 0001:0003f93c       ?write_text_ansi_nolock@@YA?AUwrite_result@?A0x17268360@@HQEBDI@Z 000000014004093c f   libucrt:write.obj
 0001:0003fa40       ?write_text_utf16le_nolock@@YA?AUwrite_result@?A0x17268360@@HQEBDI@Z 0000000140040a40 f   libucrt:write.obj
 0001:0003fb5c       ?write_text_utf8_nolock@@YA?AUwrite_result@?A0x17268360@@HQEBDI@Z 0000000140040b5c f   libucrt:write.obj
 0001:00040308       ??$translate_text_mode_nolock@_W@@YAHHQEA_W_K@Z 0000000140041308 f   libucrt:read.obj
 0001:000404e0       ?translate_ansi_or_utf8_nolock@@YAHHQEAD_KQEA_W1@Z 00000001400414e0 f   libucrt:read.obj
 0001:00040d1c       ??$common_lseek@_J@@YA_JH_JHAEAV__crt_cached_ptd_host@@@Z 0000000140041d1c f   libucrt:lseek.obj
 0001:00040e44       ??$common_lseek_nolock@_J@@YA_JH_JHAEAV__crt_cached_ptd_host@@@Z 0000000140041e44 f   libucrt:lseek.obj
 0001:000413cc       ?fp_format_a@@YAHQEBNPEAD_KQEAD2H_NIW4__acrt_rounding_mode@@AEAV__crt_cached_ptd_host@@@Z 00000001400423cc f   libucrt:cvt.obj
 0001:00041780       ?fp_format_e@@YAHQEBNQEAD_K12H_NIW4__acrt_rounding_mode@@AEAV__crt_cached_ptd_host@@@Z 0000000140042780 f   libucrt:cvt.obj
 0001:0004187c       ?fp_format_e_internal@@YAHQEAD_KH_NIQEAU_strflt@@2AEAV__crt_cached_ptd_host@@@Z 000000014004287c f   libucrt:cvt.obj
 0001:00041a60       ?fp_format_f@@YAHQEBNQEAD_K12HW4__acrt_rounding_mode@@AEAV__crt_cached_ptd_host@@@Z 0000000140042a60 f   libucrt:cvt.obj
 0001:00041b38       ?fp_format_f_internal@@YAHQEAD_KHQEAU_strflt@@_NAEAV__crt_cached_ptd_host@@@Z 0000000140042b38 f   libucrt:cvt.obj
 0001:00041c90       ?fp_format_g@@YAHQEBNQEAD_K12H_NIW4__acrt_rounding_mode@@AEAV__crt_cached_ptd_host@@@Z 0000000140042c90 f   libucrt:cvt.obj
 0001:00041de4       ?should_round_up@@YA_NQEBN_KFW4__acrt_rounding_mode@@@Z 0000000140042de4 f   libucrt:cvt.obj
 0001:0004297c       ??$common_xtox@K_W@@YAHKQEA_W_KI_N@Z 000000014004397c f   libucrt:xtoa.obj
 0001:00042a50       ??$common_xtox_s@K_W@@YAHKQEA_W_KI_N@Z 0000000140043a50 f   libucrt:xtoa.obj
 0001:00042ff0       ??$?RV<lambda_9291da6fb19fed9e7668d36b7e9903ee>@@AEAV<lambda_e8d85a8178367c0d1135ba66de989cf6>@@V<lambda_2aa1c5fac2b3ecd63b0b04056e47917d>@@@?$__crt_seh_guarded_call@H@@QEAAH$$QEAV<lambda_9291da6fb19fed9e7668d36b7e9903ee>@@AEAV<lambda_e8d85a8178367c0d1135ba66de989cf6>@@$$QEAV<lambda_2aa1c5fac2b3ecd63b0b04056e47917d>@@@Z 0000000140043ff0 f   libucrt:setvbuf.obj
 0001:00043030       ??R<lambda_e8d85a8178367c0d1135ba66de989cf6>@@QEBAHXZ 0000000140044030 f   libucrt:setvbuf.obj
 0001:00043250       ??$?RV<lambda_450d765d439847d4c735a33c368b5fc0>@@AEAV<lambda_44731a7d0e6d81c3e6aa82d741081786>@@V<lambda_601a2a7da3b7a96e9554ac7215c4b07c>@@@?$__crt_seh_guarded_call@P6AXH@Z@@QEAAP6AXH@Z$$QEAV<lambda_450d765d439847d4c735a33c368b5fc0>@@AEAV<lambda_44731a7d0e6d81c3e6aa82d741081786>@@$$QEAV<lambda_601a2a7da3b7a96e9554ac7215c4b07c>@@@Z 0000000140044250 f   libucrt:signal.obj
 0001:00043568       _call_matherr              0000000140044568 f   libucrt:libm_error.obj
 0001:000435d0       _exception_enabled         00000001400445d0 f   libucrt:libm_error.obj
 0001:00043920       $$000000                   0000000140044920     libucrt:remainder_piby2f_forasm.obj
 0001:00043a70       $$000000                   0000000140044a70     libucrt:remainder_piby2_forfma3.obj
 0001:00043cec       _sincosf_special           0000000140044cec f   libucrt:sincos_special.obj
 0001:00043f60       $$000000                   0000000140044f60     libucrt:remainder_piby2f_forc.obj
 0001:000440ec       ?<lambda_invoker_cdecl>@<lambda_a1ce4c8ae42411fd470c77163914f50e>@@CAHPEBX0@Z 00000001400450ec f   libucrt:argv_wildcards.obj
 0001:00044408       ??$common_expand_argv_wildcards@D@@YAHQEAPEADQEAPEAPEAD@Z 0000000140045408 f   libucrt:argv_wildcards.obj
 0001:0004464c       ??$copy_and_add_argument_to_buffer@D@@YAHQEBD0_KAEAV?$argument_list@D@?A0x5f5c8891@@@Z 000000014004564c f   libucrt:argv_wildcards.obj
 0001:000447d4       ??$expand_argument_wildcards@D@@YAHQEAD0AEAV?$argument_list@D@?A0x5f5c8891@@@Z 00000001400457d4 f   libucrt:argv_wildcards.obj
 0001:00044b2c       ??$?RV<lambda_efdfa57d1f175319df784efa44bb7b81>@@AEAV<lambda_5f0a4c1567f8adc6734073e5d1e1b35c>@@V<lambda_2e8a7d3640ea6ccb4c2413664c2db6fd>@@@?$__crt_seh_guarded_call@X@@QEAAX$$QEAV<lambda_efdfa57d1f175319df784efa44bb7b81>@@AEAV<lambda_5f0a4c1567f8adc6734073e5d1e1b35c>@@$$QEAV<lambda_2e8a7d3640ea6ccb4c2413664c2db6fd>@@@Z 0000000140045b2c f   libucrt:mbctype.obj
 0001:00044cfc       ?getSystemCP@@YAHH@Z       0000000140045cfc f   libucrt:mbctype.obj
 0001:00044d7c       ?setSBCS@@YAXPEAU__crt_multibyte_data@@@Z 0000000140045d7c f   libucrt:mbctype.obj
 0001:00044e14       ?setSBUpLow@@YAXPEAU__crt_multibyte_data@@@Z 0000000140045e14 f   libucrt:mbctype.obj
 0001:00044ffc       ?setmbcp_internal@@YAHH_NQEAU__acrt_ptd@@QEAPEAU__crt_multibyte_data@@@Z 0000000140045ffc f   libucrt:mbctype.obj
 0001:0004526c       ?update_thread_multibyte_data_internal@@YAPEAU__crt_multibyte_data@@QEAU__acrt_ptd@@QEAPEAU1@@Z 000000014004626c f   libucrt:mbctype.obj
 0001:00045660       ?x_ismbbtype_l@@YAHPEAU__crt_locale_pointers@@IHH@Z 0000000140046660 f   libucrt:ismbbyte.obj
 0001:000460e0       ?free_crt_array_internal@@YAXQEAPEBX_K@Z 00000001400470e0 f   libucrt:inittime.obj
 0001:000469e0       $$000000                   00000001400479e0     libucrt:fpsr.obj
 0001:00046c80       ??$common_sopen_dispatch@D@@YAHQEBDHHHQEAHH@Z 0000000140047c80 f   libucrt:open.obj
 0001:00046d44       ?configure_text_mode@@YAHHUfile_options@?A0xa9d50aae@@HAEAW4__crt_lowio_text_mode@@@Z 0000000140047d44 f   libucrt:open.obj
 0001:00046fbc       ?decode_options@@YA?AUfile_options@?A0xa9d50aae@@HHH@Z 0000000140047fbc f   libucrt:open.obj
 0001:000471c8       ?truncate_ctrl_z_if_present@@YAHH@Z 00000001400481c8 f   libucrt:open.obj
 0001:00048eb8       ??$write_buffer_nolock@D@@YA_NDV__crt_stdio_stream@@AEAV__crt_cached_ptd_host@@@Z 0000000140049eb8 f   libucrt:_flsbuf.obj
 0001:00048fb0       ??$write_buffer_nolock@_W@@YA_N_WV__crt_stdio_stream@@AEAV__crt_cached_ptd_host@@@Z 0000000140049fb0 f   libucrt:_flsbuf.obj
 0001:000490ac       ?stream_is_at_end_of_file_nolock@@YA_NV__crt_stdio_stream@@@Z 000000014004a0ac f   libucrt:_flsbuf.obj
 0001:00049ab0       fallbackMethod             000000014004aab0 f   libucrt:strpbrk.obj
 0001:00049e5c       $LN78                      000000014004ae5c     libucrt:strpbrk.obj
 0001:00049e98       $LN77                      000000014004ae98     libucrt:strpbrk.obj
 0001:00049ed8       $LN76                      000000014004aed8     libucrt:strpbrk.obj
 0001:00049fb4       ?__acrt_LCMapStringA_stat@@YAHPEAU__crt_locale_pointers@@PEB_WKPEBDHPEADHHH@Z 000000014004afb4 f   libucrt:lcmapstringa.obj
 0001:0004a36c       ?initialize_multibyte@@YAHXZ 000000014004b36c f   libucrt:multibyte_initializer.obj
 0001:0004aae0       $$000000                   000000014004bae0     libucrt:log10.obj
 0001:0004b138       common_control87           000000014004c138 f   libucrt:ieee.obj
 0001:0004b420       _log_special_common        000000014004c420 f   libucrt:log_special.obj
 0001:0004b6a0       $$000000                   000000014004c6a0     libvcruntime:memcmp.obj
 0001:0004b8c0       $$000000                   000000014004c8c0     LIBCMT:guard_dispatch.obj
 0001:0004b8e0       $$000000                   000000014004c8e0     LIBCMT:guard_xfg_dispatch.obj
 0001:0004b900       ?filt$0@?0??__scrt_common_main_seh@@YAHXZ@4HA 000000014004c900 f   LIBCMT:exe_winmain.obj
 0001:0004b91e       __scrt_is_nonwritable_in_current_image$filt$0 000000014004c91e f   LIBCMT:utility.obj
 0001:0004b936       __DestructExceptionObject$filt$0 000000014004c936 f   libvcruntime:ehhelpers.obj
 0001:0004b9cc       ?filt$0@?0???$_CallSETranslator@V__FrameHandler3@@@@YAHPEAUEHExceptionRecord@@PEA_KPEAU_CONTEXT@@PEAU_xDISPATCHER_CONTEXT@@PEBU_s_FuncInfo@@K1H@Z@4HA 000000014004c9cc f   libvcruntime:risctrnsctrl.obj
 0001:0004ba6f       ?filt$0@?0??CxxCallCatchBlock@__FrameHandler3@@SAPEAXPEAU_EXCEPTION_RECORD@@@Z@4HA 000000014004ca6f f   libvcruntime:frame.obj
 0001:0004ba94       ?fin$1@?0??CxxCallCatchBlock@__FrameHandler3@@SAPEAXPEAU_EXCEPTION_RECORD@@@Z@4HA 000000014004ca94 f   libvcruntime:frame.obj
 0001:0004bb1a       ?filt$0@?0??FrameUnwindToState@__FrameHandler3@@SAXPEA_KPEAU_xDISPATCHER_CONTEXT@@PEBU_s_FuncInfo@@H@Z@4HA 000000014004cb1a f   libvcruntime:frame.obj
 0001:0004bb30       ?fin$1@?0??FrameUnwindToState@__FrameHandler3@@SAXPEA_KPEAU_xDISPATCHER_CONTEXT@@PEBU_s_FuncInfo@@H@Z@4HA 000000014004cb30 f   libvcruntime:frame.obj
 0001:0004bb53       ?fin$0@?0???$common_fsopen@D@@YAPEAU_iobuf@@QEBD0H@Z@4HA 000000014004cb53 f   libucrt:fopen.obj
 0001:0004bb7e       ?fin$0@?0??_fclose_internal@@YAHQEAU_iobuf@@AEAV__crt_cached_ptd_host@@@Z@4HA 000000014004cb7e f   libucrt:fclose.obj
 0001:0004bb7e       ?fin$0@?0??common_fseek@@YAHV__crt_stdio_stream@@_JHAEAV__crt_cached_ptd_host@@@Z@4HA 000000014004cb7e f   libucrt:fseek.obj
 0001:0004bb7e       ?fin$0@?0???$common_ftell@J@@YAJV__crt_stdio_stream@@AEAV__crt_cached_ptd_host@@@Z@4HA 000000014004cb7e f   libucrt:ftell.obj
 0001:0004bb96       ?fin$0@?0???$?RV<lambda_842d9ff0dc9ef11c61343bbaebe7f885>@@AEAV<lambda_c5860995281e5c4ce005b3de8f5874ee>@@V<lambda_d90129c13df834fdcbf8d2b88dafcf2d>@@@?$__crt_seh_guarded_call@X@@QEAAX$$QEAV<lambda_842d9ff0dc9ef11c61343bbaebe7f885>@@AEAV<lambda_c5860995281e5c4ce005b3de8f5874ee>@@$$QEAV<lambda_d90129c13df834fdcbf8d2b88dafcf2d>@@@Z@4HA 000000014004cb96 f   libucrt:fflush.obj
 0001:0004bb96       ?fin$0@?0???$?RV<lambda_c376a267cfb53b6959b3b692ec76b120>@@AEAV<lambda_9a32fed5bf61b6b509b2d3f6003082a1>@@V<lambda_572fbb9fa0ab338edf41edfd4b5fcc8d>@@@?$__crt_seh_guarded_call@H@@QEAAH$$QEAV<lambda_c376a267cfb53b6959b3b692ec76b120>@@AEAV<lambda_9a32fed5bf61b6b509b2d3f6003082a1>@@$$QEAV<lambda_572fbb9fa0ab338edf41edfd4b5fcc8d>@@@Z@4HA 000000014004cb96 f   libucrt:fflush.obj
 0001:0004bb96       ?fin$0@?0???$?RV<lambda_613eff765f5c257adf68e381dfe80f05>@@AEAV<lambda_ebf663be9fcd9e0b17ed57bdb95b0759>@@V<lambda_872abebd861b7db59b42e49ea65623b0>@@@?$__crt_seh_guarded_call@H@@QEAAH$$QEAV<lambda_613eff765f5c257adf68e381dfe80f05>@@AEAV<lambda_ebf663be9fcd9e0b17ed57bdb95b0759>@@$$QEAV<lambda_872abebd861b7db59b42e49ea65623b0>@@@Z@4HA 000000014004cb96 f   libucrt:output.obj
 0001:0004bb96       ?fin$0@?0???$?RV<lambda_d854c62834386a3b23916ad6dae2782d>@@AEAV<lambda_303760bc4008a2b3ec4768a30b06a80c>@@V<lambda_4780a7ea4f8cbd2590aec34bd14e2bbf>@@@?$__crt_seh_guarded_call@H@@QEAAH$$QEAV<lambda_d854c62834386a3b23916ad6dae2782d>@@AEAV<lambda_303760bc4008a2b3ec4768a30b06a80c>@@$$QEAV<lambda_4780a7ea4f8cbd2590aec34bd14e2bbf>@@@Z@4HA 000000014004cb96 f   libucrt:output.obj
 0001:0004bb96       ?fin$0@?0???$?RV<lambda_9291da6fb19fed9e7668d36b7e9903ee>@@AEAV<lambda_e8d85a8178367c0d1135ba66de989cf6>@@V<lambda_2aa1c5fac2b3ecd63b0b04056e47917d>@@@?$__crt_seh_guarded_call@H@@QEAAH$$QEAV<lambda_9291da6fb19fed9e7668d36b7e9903ee>@@AEAV<lambda_e8d85a8178367c0d1135ba66de989cf6>@@$$QEAV<lambda_2aa1c5fac2b3ecd63b0b04056e47917d>@@@Z@4HA 000000014004cb96 f   libucrt:setvbuf.obj
 0001:0004bbb1       ?fin$0@?0???$?RV<lambda_886d6c58226a84441f68b9f2b8217b83>@@AEAV<lambda_ab61a845afdef5b7c387490eaf3616ee>@@V<lambda_f7f22ab5edc0698d5f6905b0d3f44752>@@@?$__crt_seh_guarded_call@X@@QEAAX$$QEAV<lambda_886d6c58226a84441f68b9f2b8217b83>@@AEAV<lambda_ab61a845afdef5b7c387490eaf3616ee>@@$$QEAV<lambda_f7f22ab5edc0698d5f6905b0d3f44752>@@@Z@4HA 000000014004cbb1 f   libucrt:fflush.obj
 0001:0004bbce       fgetc$fin$0                000000014004cbce f   libucrt:fgetc.obj
 0001:0004bbe8       fread_s$fin$0              000000014004cbe8 f   libucrt:fread.obj
 0001:0004bc00       ungetc$fin$0               000000014004cc00 f   libucrt:ungetc.obj
 0001:0004bc18       ?fin$0@?0???$?RV<lambda_0ae27a3a962d80f24befdcbee591983d>@@AEAV<lambda_8d0ee55de4b1038c4002e0adecdf1839>@@V<lambda_dc504788e8f1664fe9b84e20bfb512f2>@@@?$__crt_seh_guarded_call@X@@QEAAX$$QEAV<lambda_0ae27a3a962d80f24befdcbee591983d>@@AEAV<lambda_8d0ee55de4b1038c4002e0adecdf1839>@@$$QEAV<lambda_dc504788e8f1664fe9b84e20bfb512f2>@@@Z@4HA 000000014004cc18 f   libucrt:per_thread_data.obj
 0001:0004bc18       ?fin$0@?0???$?RV<lambda_2d41944a1d46af3157314b8a01080d33>@@AEAV<lambda_8f455de75cd7d7f24b4096f044d8b9e6>@@V<lambda_aa500f224e6afead328df44964fe2772>@@@?$__crt_seh_guarded_call@X@@QEAAX$$QEAV<lambda_2d41944a1d46af3157314b8a01080d33>@@AEAV<lambda_8f455de75cd7d7f24b4096f044d8b9e6>@@$$QEAV<lambda_aa500f224e6afead328df44964fe2772>@@@Z@4HA 000000014004cc18 f   libucrt:per_thread_data.obj
 0001:0004bc18       ?fin$0@?0???$?RV<lambda_aa87e3671a710a21b5dc78c0bdf72e11>@@AEAV<lambda_92619d2358a28f41a33ba319515a20b9>@@V<lambda_6992ecaafeb10aed2b74cb1fae11a551>@@@?$__crt_seh_guarded_call@X@@QEAAX$$QEAV<lambda_aa87e3671a710a21b5dc78c0bdf72e11>@@AEAV<lambda_92619d2358a28f41a33ba319515a20b9>@@$$QEAV<lambda_6992ecaafeb10aed2b74cb1fae11a551>@@@Z@4HA 000000014004cc18 f   libucrt:per_thread_data.obj
 0001:0004bc18       ?fin$0@?0???$?RV<lambda_f2e299630e499de9f9a165e60fcd3db5>@@AEAV<lambda_2ae9d31cdba2644fcbeaf08da7c24588>@@V<lambda_40d01ff24d0e7b3814fdbdcee8eab3c7>@@@?$__crt_seh_guarded_call@X@@QEAAX$$QEAV<lambda_f2e299630e499de9f9a165e60fcd3db5>@@AEAV<lambda_2ae9d31cdba2644fcbeaf08da7c24588>@@$$QEAV<lambda_40d01ff24d0e7b3814fdbdcee8eab3c7>@@@Z@4HA 000000014004cc18 f   libucrt:per_thread_data.obj
 0001:0004bc18       ?fin$0@?0???$?RV<lambda_450d765d439847d4c735a33c368b5fc0>@@AEAV<lambda_44731a7d0e6d81c3e6aa82d741081786>@@V<lambda_601a2a7da3b7a96e9554ac7215c4b07c>@@@?$__crt_seh_guarded_call@P6AXH@Z@@QEAAP6AXH@Z$$QEAV<lambda_450d765d439847d4c735a33c368b5fc0>@@AEAV<lambda_44731a7d0e6d81c3e6aa82d741081786>@@$$QEAV<lambda_601a2a7da3b7a96e9554ac7215c4b07c>@@@Z@4HA 000000014004cc18 f   libucrt:signal.obj
 0001:0004bc18       ?fin$0@?0???$?RV<lambda_d80eeec6fff315bfe5c115232f3240e3>@@AEAV<lambda_6e4b09c48022b2350581041d5f6b0c4c>@@V<lambda_2358e3775559c9db80273638284d5e45>@@@?$__crt_seh_guarded_call@X@@QEAAX$$QEAV<lambda_d80eeec6fff315bfe5c115232f3240e3>@@AEAV<lambda_6e4b09c48022b2350581041d5f6b0c4c>@@$$QEAV<lambda_2358e3775559c9db80273638284d5e45>@@@Z@4HA 000000014004cc18 f   libucrt:exit.obj
 0001:0004bc18       ?fin$0@?0???$?RV<lambda_638799b9deba96c50f710eeac98168cd>@@AEAV<lambda_22ebabd17bc4fa466a2aca6d8deb888d>@@V<lambda_a6f7d7db0129f75315ebf26d50c089f1>@@@?$__crt_seh_guarded_call@H@@QEAAH$$QEAV<lambda_638799b9deba96c50f710eeac98168cd>@@AEAV<lambda_22ebabd17bc4fa466a2aca6d8deb888d>@@$$QEAV<lambda_a6f7d7db0129f75315ebf26d50c089f1>@@@Z@4HA 000000014004cc18 f   libucrt:onexit.obj
 0001:0004bc18       ?fin$0@?0???$?RV<lambda_7777bce6b2f8c936911f934f8298dc43>@@AEAV<lambda_f03950bc5685219e0bcd2087efbe011e>@@V<lambda_3883c3dff614d5e0c5f61bb1ac94921c>@@@?$__crt_seh_guarded_call@H@@QEAAH$$QEAV<lambda_7777bce6b2f8c936911f934f8298dc43>@@AEAV<lambda_f03950bc5685219e0bcd2087efbe011e>@@$$QEAV<lambda_3883c3dff614d5e0c5f61bb1ac94921c>@@@Z@4HA 000000014004cc18 f   libucrt:onexit.obj
 0001:0004bc32       ?filt$0@?0???R<lambda_6e4b09c48022b2350581041d5f6b0c4c>@@QEBA@XZ@4HA 000000014004cc32 f   libucrt:exit.obj
 0001:0004bc5f       ?fin$0@?0???$?RV<lambda_410d79af7f07d98d83a3f525b3859a53>@@AEAV<lambda_3e16ef9562a7dcce91392c22ab16ea36>@@V<lambda_38119f0e861e05405d8a144b9b982f0a>@@@?$__crt_seh_guarded_call@X@@QEAAX$$QEAV<lambda_410d79af7f07d98d83a3f525b3859a53>@@AEAV<lambda_3e16ef9562a7dcce91392c22ab16ea36>@@$$QEAV<lambda_38119f0e861e05405d8a144b9b982f0a>@@@Z@4HA 000000014004cc5f f   libucrt:wsetlocale.obj
 0001:0004bc79       _ctrlfp$filt$0             000000014004cc79 f   libucrt:fpctrl.obj
 0001:0004bc79       common_control87$filt$0    000000014004cc79 f   libucrt:ieee.obj
 0001:0004bca5       _fcloseall$fin$0           000000014004cca5 f   libucrt:closeall.obj
 0001:0004bca5       ?fin$0@?0??__acrt_stdio_allocate_stream@@YA?AV__crt_stdio_stream@@XZ@4HA 000000014004cca5 f   libucrt:stream.obj
 0001:0004bcbe       __acrt_initialize_lowio$fin$0 000000014004ccbe f   libucrt:ioinit.obj
 0001:0004bcbe       __acrt_lowio_ensure_fh_exists$fin$0 000000014004ccbe f   libucrt:osfinfo.obj
 0001:0004bcbe       _alloc_osfhnd$fin$0        000000014004ccbe f   libucrt:osfinfo.obj
 0001:0004bcd7       ?fin$0@?0???$?RV<lambda_ad8af0d99a0adf03d037d7dffe354bb5>@@AEAV<lambda_c9ba49e555ba839a7b07aa3fbecb7617>@@V<lambda_2f1ebd5d68526518146ae959c9e734c8>@@@?$__crt_seh_guarded_call@H@@QEAAH$$QEAV<lambda_ad8af0d99a0adf03d037d7dffe354bb5>@@AEAV<lambda_c9ba49e555ba839a7b07aa3fbecb7617>@@$$QEAV<lambda_2f1ebd5d68526518146ae959c9e734c8>@@@Z@4HA 000000014004ccd7 f   libucrt:close.obj
 0001:0004bcd7       ?fin$0@?0???$?RV<lambda_a37b2b86f63e897a80ea819b0eb08c01>@@AEAV<lambda_38ce7e780aa69e748d6df282ebc68efe>@@V<lambda_99fb1378e971ab6e7edea83e3a7a83a2>@@@?$__crt_seh_guarded_call@H@@QEAAH$$QEAV<lambda_a37b2b86f63e897a80ea819b0eb08c01>@@AEAV<lambda_38ce7e780aa69e748d6df282ebc68efe>@@$$QEAV<lambda_99fb1378e971ab6e7edea83e3a7a83a2>@@@Z@4HA 000000014004ccd7 f   libucrt:commit.obj
 0001:0004bcf1       ?fin$0@?0???$common_lseek@_J@@YA_JH_JHAEAV__crt_cached_ptd_host@@@Z@4HA 000000014004ccf1 f   libucrt:lseek.obj
 0001:0004bcf1       _write_internal$fin$0      000000014004ccf1 f   libucrt:write.obj
 0001:0004bd08       _read$fin$0                000000014004cd08 f   libucrt:read.obj
 0001:0004bd1f       raise$fin$0                000000014004cd1f f   libucrt:signal.obj
 0001:0004bd40       ?fin$0@?0???$?RV<lambda_efdfa57d1f175319df784efa44bb7b81>@@AEAV<lambda_5f0a4c1567f8adc6734073e5d1e1b35c>@@V<lambda_2e8a7d3640ea6ccb4c2413664c2db6fd>@@@?$__crt_seh_guarded_call@X@@QEAAX$$QEAV<lambda_efdfa57d1f175319df784efa44bb7b81>@@AEAV<lambda_5f0a4c1567f8adc6734073e5d1e1b35c>@@$$QEAV<lambda_2e8a7d3640ea6ccb4c2413664c2db6fd>@@@Z@4HA 000000014004cd40 f   libucrt:mbctype.obj
 0001:0004bd5a       ?fin$0@?0??update_thread_multibyte_data_internal@@YAPEAU__crt_multibyte_data@@QEAU__acrt_ptd@@QEAPEAU1@@Z@4HA 000000014004cd5a f   libucrt:mbctype.obj
 0001:0004bd73       __acrt_update_thread_locale_data$fin$0 000000014004cd73 f   libucrt:locale_refcounting.obj
 0001:0004bd8c       _query_new_handler$fin$0   000000014004cd8c f   libucrt:new_handler.obj
 0001:0004bda2       ?fin$0@?0???$common_sopen_dispatch@D@@YAHQEBDHHHQEAHH@Z@4HA 000000014004cda2 f   libucrt:open.obj
 0001:0004be00       _IsNonwritableInCurrentImage$filt$0 000000014004ce00 f   LIBCMT:pesect.obj
 0002:000004e0       ?pre_cpp_initializer@@3P6AXXZEA 000000014004d4e0     LIBCMT:exe_winmain.obj
 0002:000004f8       ?pre_c_initializer@@3P6AHXZEA 000000014004d4f8     LIBCMT:exe_winmain.obj
 0002:00000500       ?post_pgo_initializer@@3P6AHXZEA 000000014004d500     LIBCMT:exe_winmain.obj
 0002:00000580       $SG172060                  000000014004d580     main_win.obj
 0002:000005f5       $SG152533                  000000014004d5f5     main_win.obj
 0002:000005f8       $SG147495                  000000014004d5f8     main_win.obj
 0002:00000630       $SG147496                  000000014004d630     main_win.obj
 0002:0000069c       $SG147546                  000000014004d69c     main_win.obj
 0002:000006a0       $SG147515                  000000014004d6a0     main_win.obj
 0002:000006d8       $SG147583                  000000014004d6d8     main_win.obj
 0002:000006e0       $SG147516                  000000014004d6e0     main_win.obj
 0002:0000074c       $SG147684                  000000014004d74c     main_win.obj
 0002:00000750       $SG147548                  000000014004d750     main_win.obj
 0002:0000075c       $SG147705                  000000014004d75c     main_win.obj
 0002:00000760       $SG147585                  000000014004d760     main_win.obj
 0002:0000076c       $SG147887                  000000014004d76c     main_win.obj
 0002:00000770       $SG147653                  000000014004d770     main_win.obj
 0002:00000784       $SG147979                  000000014004d784     main_win.obj
 0002:00000788       $SG147686                  000000014004d788     main_win.obj
 0002:00000794       $SG173771                  000000014004d794     main_win.obj
 0002:00000798       $SG147869                  000000014004d798     main_win.obj
 0002:000007d0       $SG147870                  000000014004d7d0     main_win.obj
 0002:00000810       $SG147872                  000000014004d810     main_win.obj
 0002:0000081c       $SG173532                  000000014004d81c     main_win.obj
 0002:00000824       $SG152961                  000000014004d824     main_win.obj
 0002:00000828       $SG147886                  000000014004d828     main_win.obj
 0002:00000860       $SG147888                  000000014004d860     main_win.obj
 0002:0000086c       $SG152964                  000000014004d86c     main_win.obj
 0002:00000870       $SG147961                  000000014004d870     main_win.obj
 0002:000008a8       $SG147962                  000000014004d8a8     main_win.obj
 0002:000008e8       $SG147964                  000000014004d8e8     main_win.obj
 0002:000008f4       $SG173533                  000000014004d8f4     main_win.obj
 0002:000008fc       $SG149777                  000000014004d8fc     main_win.obj
 0002:00000904       $SG153019                  000000014004d904     main_win.obj
 0002:00000908       $SG147978                  000000014004d908     main_win.obj
 0002:00000940       $SG147980                  000000014004d940     main_win.obj
 0002:0000094c       $SG153021                  000000014004d94c     main_win.obj
 0002:00000950       $SG148028                  000000014004d950     main_win.obj
 0002:0000095c       $SG149772                  000000014004d95c     main_win.obj
 0002:00000964       $SG149802                  000000014004d964     main_win.obj
 0002:0000096c       $SG153221                  000000014004d96c     main_win.obj
 0002:00000970       $SG148060                  000000014004d970     main_win.obj
 0002:0000097c       $SG149775                  000000014004d97c     main_win.obj
 0002:00000984       $SG149806                  000000014004d984     main_win.obj
 0002:0000098c       $SG153238                  000000014004d98c     main_win.obj
 0002:00000990       $SG148206                  000000014004d990     main_win.obj
 0002:000009a8       $SG148261                  000000014004d9a8     main_win.obj
 0002:000009e0       ?stbi__bmask@@3QBIB        000000014004d9e0     main_win.obj
 0002:00000a24       $SG149784                  000000014004da24     main_win.obj
 0002:00000a30       $SG148262                  000000014004da30     main_win.obj
 0002:00000ad4       $SG149786                  000000014004dad4     main_win.obj
 0002:00000ae0       ?stbi__jbias@@3QBHB        000000014004dae0     main_win.obj
 0002:00000b20       ?stbi__jpeg_dezigzag@@3QBEB 000000014004db20     main_win.obj
 0002:00000b70       $SG148310                  000000014004db70     main_win.obj
 0002:00000b84       $SG152953                  000000014004db84     main_win.obj
 0002:00000b8c       $SG171873                  000000014004db8c     main_win.obj
 0002:00000b90       $SG148315                  000000014004db90     main_win.obj
 0002:00000ba4       $SG171858                  000000014004dba4     main_win.obj
 0002:00000bb0       $SG148331                  000000014004dbb0     main_win.obj
 0002:00000bc8       $SG148337                  000000014004dbc8     main_win.obj
 0002:00000be0       $SG148374                  000000014004dbe0     main_win.obj
 0002:00000bf8       $SG148382                  000000014004dbf8     main_win.obj
 0002:00000c10       $SG148395                  000000014004dc10     main_win.obj
 0002:00000c28       $SG148402                  000000014004dc28     main_win.obj
 0002:00000c40       $SG173413                  000000014004dc40     main_win.obj
 0002:00000c70       $SG173414                  000000014004dc70     main_win.obj
 0002:00000c90       $SG173515                  000000014004dc90     main_win.obj
 0002:00000cb0       $SG173517                  000000014004dcb0     main_win.obj
 0002:00000ce0       $SG173518                  000000014004dce0     main_win.obj
 0002:00000d00       $SG173519                  000000014004dd00     main_win.obj
 0002:00000d20       $SG173521                  000000014004dd20     main_win.obj
 0002:00000d50       $SG173522                  000000014004dd50     main_win.obj
 0002:00000d70       $SG173524                  000000014004dd70     main_win.obj
 0002:00000da0       $SG173525                  000000014004dda0     main_win.obj
 0002:00000dc0       $SG173527                  000000014004ddc0     main_win.obj
 0002:00000df0       $SG173528                  000000014004ddf0     main_win.obj
 0002:00000e10       $SG173530                  000000014004de10     main_win.obj
 0002:00000e38       $SG173531                  000000014004de38     main_win.obj
 0002:00000e58       $SG173542                  000000014004de58     main_win.obj
 0002:00000e78       $SG173543                  000000014004de78     main_win.obj
 0002:00000e98       $SG173545                  000000014004de98     main_win.obj
 0002:00000eb0       $SG173546                  000000014004deb0     main_win.obj
 0002:00000ed0       $SG173555                  000000014004ded0     main_win.obj
 0002:00000ef8       $SG173556                  000000014004def8     main_win.obj
 0002:00000f18       $SG173558                  000000014004df18     main_win.obj
 0002:00000f30       $SG173559                  000000014004df30     main_win.obj
 0002:00000f50       $SG173625                  000000014004df50     main_win.obj
 0002:00000f78       $SG173627                  000000014004df78     main_win.obj
 0002:00000fa0       $SG173629                  000000014004dfa0     main_win.obj
 0002:00000fb8       $SG173630                  000000014004dfb8     main_win.obj
 0002:00000fe8       $SG173632                  000000014004dfe8     main_win.obj
 0002:00001008       $SG173741                  000000014004e008     main_win.obj
 0002:00001038       $SG173742                  000000014004e038     main_win.obj
 0002:00001060       $SG173773                  000000014004e060     main_win.obj
 0002:000010a8       $SG173774                  000000014004e0a8     main_win.obj
 0002:000010d0       $SG173960                  000000014004e0d0     main_win.obj
 0002:00001118       $SG173961                  000000014004e118     main_win.obj
 0002:00001140       $SG173970                  000000014004e140     main_win.obj
 0002:00001184       $SG152259                  000000014004e184     main_win.obj
 0002:00001190       $SG173971                  000000014004e190     main_win.obj
 0002:000011f0       $SG173972                  000000014004e1f0     main_win.obj
 0002:00001238       $SG173973                  000000014004e238     main_win.obj
 0002:00001278       $SG174098                  000000014004e278     main_win.obj
 0002:00001290       $SG174099                  000000014004e290     main_win.obj
 0002:000012a8       $SG174100                  000000014004e2a8     main_win.obj
 0002:000012c8       $SG174101                  000000014004e2c8     main_win.obj
 0002:000012e0       $SG174102                  000000014004e2e0     main_win.obj
 0002:000012f8       $SG149636                  000000014004e2f8     main_win.obj
 0002:00001308       $SG149639                  000000014004e308     main_win.obj
 0002:00001318       $SG149642                  000000014004e318     main_win.obj
 0002:00001328       $SG149644                  000000014004e328     main_win.obj
 0002:00001338       $SG149648                  000000014004e338     main_win.obj
 0002:00001348       $SG149660                  000000014004e348     main_win.obj
 0002:00001358       $SG149661                  000000014004e358     main_win.obj
 0002:00001368       $SG174242                  000000014004e368     main_win.obj
 0002:00001378       $SG174244                  000000014004e378     main_win.obj
 0002:00001388       $SG149669                  000000014004e388     main_win.obj
 0002:00001398       $SG149688                  000000014004e398     main_win.obj
 0002:000013b0       $SG149690                  000000014004e3b0     main_win.obj
 0002:000013c0       $SG149694                  000000014004e3c0     main_win.obj
 0002:000013d0       $SG149696                  000000014004e3d0     main_win.obj
 0002:000013e0       $SG149701                  000000014004e3e0     main_win.obj
 0002:000013e8       $SG149703                  000000014004e3e8     main_win.obj
 0002:000013f0       $SG149706                  000000014004e3f0     main_win.obj
 0002:000013f8       $SG174285                  000000014004e3f8     main_win.obj
 0002:00001410       $SG174286                  000000014004e410     main_win.obj
 0002:00001420       $SG174288                  000000014004e420     main_win.obj
 0002:00001440       $SG174290                  000000014004e440     main_win.obj
 0002:00001468       $SG174292                  000000014004e468     main_win.obj
 0002:00001480       $SG174294                  000000014004e480     main_win.obj
 0002:000014a0       $SG174296                  000000014004e4a0     main_win.obj
 0002:000014b8       $SG174297                  000000014004e4b8     main_win.obj
 0002:000014e8       $SG174329                  000000014004e4e8     main_win.obj
 0002:000014f8       $SG149754                  000000014004e4f8     main_win.obj
 0002:00001508       $SG174331                  000000014004e508     main_win.obj
 0002:00001518       $SG174332                  000000014004e518     main_win.obj
 0002:00001530       $SG149756                  000000014004e530     main_win.obj
 0002:00001540       $SG149758                  000000014004e540     main_win.obj
 0002:00001558       $SG149760                  000000014004e558     main_win.obj
 0002:00001560       $SG149762                  000000014004e560     main_win.obj
 0002:00001570       $SG149764                  000000014004e570     main_win.obj
 0002:00001580       $SG149766                  000000014004e580     main_win.obj
 0002:00001598       $SG149768                  000000014004e598     main_win.obj
 0002:000015a8       $SG149780                  000000014004e5a8     main_win.obj
 0002:000015b8       $SG149788                  000000014004e5b8     main_win.obj
 0002:000015c8       $SG149791                  000000014004e5c8     main_win.obj
 0002:000015d8       $SG149832                  000000014004e5d8     main_win.obj
 0002:000015e8       $SG149834                  000000014004e5e8     main_win.obj
 0002:000015f8       $SG150339                  000000014004e5f8     main_win.obj
 0002:00001608       $SG150345                  000000014004e608     main_win.obj
 0002:00001618       $SG150355                  000000014004e618     main_win.obj
 0002:00001628       $SG150397                  000000014004e628     main_win.obj
 0002:00001638       $SG150406                  000000014004e638     main_win.obj
 0002:00001648       $SG150428                  000000014004e648     main_win.obj
 0002:00001658       $SG150456                  000000014004e658     main_win.obj
 0002:00001690       $SG150457                  000000014004e690     main_win.obj
 0002:000016a8       $SG150492                  000000014004e6a8     main_win.obj
 0002:000016b8       $SG150495                  000000014004e6b8     main_win.obj
 0002:000016c8       $SG150580                  000000014004e6c8     main_win.obj
 0002:000016e0       $SG150582                  000000014004e6e0     main_win.obj
 0002:000016f0       $SG150584                  000000014004e6f0     main_win.obj
 0002:00001700       $SG150586                  000000014004e700     main_win.obj
 0002:00001710       ?stbi__zlength_base@@3QBHB 000000014004e710     main_win.obj
 0002:00001790       ?stbi__zlength_extra@@3QBHB 000000014004e790     main_win.obj
 0002:00001810       ?stbi__zdist_base@@3QBHB   000000014004e810     main_win.obj
 0002:00001890       ?stbi__zdist_extra@@3QBHB  000000014004e890     main_win.obj
 0002:00001910       $SG150614                  000000014004e910     main_win.obj
 0002:00001928       $SG150620                  000000014004e928     main_win.obj
 0002:00001940       $SG150623                  000000014004e940     main_win.obj
 0002:00001950       $SG150657                  000000014004e950     main_win.obj
 0002:00001960       $SG150663                  000000014004e960     main_win.obj
 0002:00001970       $SG150668                  000000014004e970     main_win.obj
 0002:00001980       $SG150670                  000000014004e980     main_win.obj
 0002:00001990       $SG150672                  000000014004e990     main_win.obj
 0002:000019a0       $SG150689                  000000014004e9a0     main_win.obj
 0002:000019b0       $SG150691                  000000014004e9b0     main_win.obj
 0002:000019c0       $SG150693                  000000014004e9c0     main_win.obj
 0002:000019d8       $SG150703                  000000014004e9d8     main_win.obj
 0002:000019e8       $SG150705                  000000014004e9e8     main_win.obj
 0002:000019f8       $SG150707                  000000014004e9f8     main_win.obj
 0002:00001a08       $SG150709                  000000014004ea08     main_win.obj
 0002:00001a18       $SG151036                  000000014004ea18     main_win.obj
 0002:00001a50       ?stbi__zdefault_length@@3QBEB 000000014004ea50     main_win.obj
 0002:00001b70       ?stbi__zdefault_distance@@3QBEB 000000014004eb70     main_win.obj
 0002:00001b90       $SG150846                  000000014004eb90     main_win.obj
 0002:00001ba0       ?stbi__depth_scale_table@@3QBEB 000000014004eba0     main_win.obj
 0002:00001bb0       $SG151037                  000000014004ebb0     main_win.obj
 0002:00001c08       $SG151039                  000000014004ec08     main_win.obj
 0002:00001c18       $SG151041                  000000014004ec18     main_win.obj
 0002:00001c28       $SG151043                  000000014004ec28     main_win.obj
 0002:00001c40       $SG151045                  000000014004ec40     main_win.obj
 0002:00001c50       $SG151048                  000000014004ec50     main_win.obj
 0002:00001c60       $SG151073                  000000014004ec60     main_win.obj
 0002:00001c98       $SG151074                  000000014004ec98     main_win.obj
 0002:00001cc0       $SG151104                  000000014004ecc0     main_win.obj
 0002:00001cf8       $SG151105                  000000014004ecf8     main_win.obj
 0002:00001d10       $SG151143                  000000014004ed10     main_win.obj
 0002:00001d20       $SG151163                  000000014004ed20     main_win.obj
 0002:00001d58       $SG151164                  000000014004ed58     main_win.obj
 0002:00001d90       $SG151186                  000000014004ed90     main_win.obj
 0002:00001dc8       $SG151187                  000000014004edc8     main_win.obj
 0002:00001e00       $SG151213                  000000014004ee00     main_win.obj
 0002:00001e10       $SG151259                  000000014004ee10     main_win.obj
 0002:00001e48       $SG151260                  000000014004ee48     main_win.obj
 0002:00001e70       $SG151357                  000000014004ee70     main_win.obj
 0002:00001e80       $SG151359                  000000014004ee80     main_win.obj
 0002:00001e90       $SG151361                  000000014004ee90     main_win.obj
 0002:00001ea0       $SG151363                  000000014004eea0     main_win.obj
 0002:00001eb0       $SG151365                  000000014004eeb0     main_win.obj
 0002:00001ec8       $SG151367                  000000014004eec8     main_win.obj
 0002:00001ed8       $SG151369                  000000014004eed8     main_win.obj
 0002:00001ee8       $SG151373                  000000014004eee8     main_win.obj
 0002:00001ef8       $SG151375                  000000014004eef8     main_win.obj
 0002:00001f08       $SG151377                  000000014004ef08     main_win.obj
 0002:00001f20       $SG151379                  000000014004ef20     main_win.obj
 0002:00001f38       $SG151382                  000000014004ef38     main_win.obj
 0002:00001f48       $SG151386                  000000014004ef48     main_win.obj
 0002:00001f58       $SG151389                  000000014004ef58     main_win.obj
 0002:00001f68       $SG151392                  000000014004ef68     main_win.obj
 0002:00001f78       $SG151394                  000000014004ef78     main_win.obj
 0002:00001f88       $SG151396                  000000014004ef88     main_win.obj
 0002:00001f98       $SG151399                  000000014004ef98     main_win.obj
 0002:00001fa8       $SG151401                  000000014004efa8     main_win.obj
 0002:00001fb8       $SG151406                  000000014004efb8     main_win.obj
 0002:00001fd0       $SG151408                  000000014004efd0     main_win.obj
 0002:00001fe0       $SG151410                  000000014004efe0     main_win.obj
 0002:00001ff0       $SG151412                  000000014004eff0     main_win.obj
 0002:00002000       $SG151417                  000000014004f000     main_win.obj
 0002:00002010       $SG151419                  000000014004f010     main_win.obj
 0002:00002018       $SG151425                  000000014004f018     main_win.obj
 0002:00002028       $SG151427                  000000014004f028     main_win.obj
 0002:00002038       $SG151430                  000000014004f038     main_win.obj
 0002:00002048       $SG151433                  000000014004f048     main_win.obj
 0002:00002050       $SG151453                  000000014004f050     main_win.obj
 0002:00002060       $SG151472                  000000014004f060     main_win.obj
 0002:00002070       $SG151478                  000000014004f070     main_win.obj
 0002:00002088       $SG151561                  000000014004f088     main_win.obj
 0002:000020c0       $SG151562                  000000014004f0c0     main_win.obj
 0002:000020d0       $SG151563                  000000014004f0d0     main_win.obj
 0002:00002108       $SG151564                  000000014004f108     main_win.obj
 0002:00002138       $SG151629                  000000014004f138     main_win.obj
 0002:00002140       $SG151631                  000000014004f140     main_win.obj
 0002:00002148       $SG151633                  000000014004f148     main_win.obj
 0002:00002158       $SG151637                  000000014004f158     main_win.obj
 0002:00002160       $SG151641                  000000014004f160     main_win.obj
 0002:00002168       $SG151643                  000000014004f168     main_win.obj
 0002:00002178       $SG151645                  000000014004f178     main_win.obj
 0002:00002180       $SG151657                  000000014004f180     main_win.obj
 0002:00002188       $SG151658                  000000014004f188     main_win.obj
 0002:00002190       $SG151660                  000000014004f190     main_win.obj
 0002:00002198       $SG151782                  000000014004f198     main_win.obj
 0002:000021a8       $SG151784                  000000014004f1a8     main_win.obj
 0002:000021b8       $SG151791                  000000014004f1b8     main_win.obj
 0002:000021c8       $SG151797                  000000014004f1c8     main_win.obj
 0002:000021d8       $SG151799                  000000014004f1d8     main_win.obj
 0002:000021e8       $SG151804                  000000014004f1e8     main_win.obj
 0002:000021f0       $SG151812                  000000014004f1f0     main_win.obj
 0002:000021f8       $SG151833                  000000014004f1f8     main_win.obj
 0002:00002208       $SG151836                  000000014004f208     main_win.obj
 0002:00002218       $SG152024                  000000014004f218     main_win.obj
 0002:00002228       $SG152026                  000000014004f228     main_win.obj
 0002:00002238       $SG152031                  000000014004f238     main_win.obj
 0002:00002248       $SG152034                  000000014004f248     main_win.obj
 0002:00002258       $SG152036                  000000014004f258     main_win.obj
 0002:00002268       $SG152041                  000000014004f268     main_win.obj
 0002:00002278       $SG152043                  000000014004f278     main_win.obj
 0002:00002288       $SG152046                  000000014004f288     main_win.obj
 0002:000022c0       $SG152047                  000000014004f2c0     main_win.obj
 0002:000022f0       $SG152049                  000000014004f2f0     main_win.obj
 0002:00002300       $SG152061                  000000014004f300     main_win.obj
 0002:00002338       $SG152062                  000000014004f338     main_win.obj
 0002:00002368       $SG152195                  000000014004f368     main_win.obj
 0002:00002370       $SG152197                  000000014004f370     main_win.obj
 0002:00002380       $SG152200                  000000014004f380     main_win.obj
 0002:00002398       $SG152202                  000000014004f398     main_win.obj
 0002:000023a8       $SG152204                  000000014004f3a8     main_win.obj
 0002:000023b8       $SG152206                  000000014004f3b8     main_win.obj
 0002:000023d0       $SG152208                  000000014004f3d0     main_win.obj
 0002:000023e8       $SG152210                  000000014004f3e8     main_win.obj
 0002:000023f8       $SG152212                  000000014004f3f8     main_win.obj
 0002:00002408       $SG152216                  000000014004f408     main_win.obj
 0002:00002418       $SG152222                  000000014004f418     main_win.obj
 0002:00002420       $SG152261                  000000014004f420     main_win.obj
 0002:00002428       $SG152291                  000000014004f428     main_win.obj
 0002:00002438       $SG152373                  000000014004f438     main_win.obj
 0002:00002448       $SG152375                  000000014004f448     main_win.obj
 0002:00002458       $SG152377                  000000014004f458     main_win.obj
 0002:00002468       $SG152379                  000000014004f468     main_win.obj
 0002:00002478       $SG152384                  000000014004f478     main_win.obj
 0002:00002488       $SG152389                  000000014004f488     main_win.obj
 0002:00002498       $SG152395                  000000014004f498     main_win.obj
 0002:000024a8       $SG152398                  000000014004f4a8     main_win.obj
 0002:000024b8       $SG152430                  000000014004f4b8     main_win.obj
 0002:000024c8       $SG152432                  000000014004f4c8     main_win.obj
 0002:000024d8       $SG152434                  000000014004f4d8     main_win.obj
 0002:000024e8       $SG152436                  000000014004f4e8     main_win.obj
 0002:000024f8       $SG152438                  000000014004f4f8     main_win.obj
 0002:00002508       $SG152528                  000000014004f508     main_win.obj
 0002:00002510       $SG152530                  000000014004f510     main_win.obj
 0002:00002518       $SG152532                  000000014004f518     main_win.obj
 0002:00002520       $SG152535                  000000014004f520     main_win.obj
 0002:00002530       $SG152537                  000000014004f530     main_win.obj
 0002:00002540       $SG152551                  000000014004f540     main_win.obj
 0002:00002550       $SG152618                  000000014004f550     main_win.obj
 0002:00002560       $SG152622                  000000014004f560     main_win.obj
 0002:00002570       $SG152624                  000000014004f570     main_win.obj
 0002:00002588       $SG152626                  000000014004f588     main_win.obj
 0002:000025a0       $SG152683                  000000014004f5a0     main_win.obj
 0002:000025b0       $SG152686                  000000014004f5b0     main_win.obj
 0002:000025c0       $SG152697                  000000014004f5c0     main_win.obj
 0002:000025d8       $SG152705                  000000014004f5d8     main_win.obj
 0002:000025f0       $SG152719                  000000014004f5f0     main_win.obj
 0002:00002600       $SG152729                  000000014004f600     main_win.obj
 0002:00002610       $SG152783                  000000014004f610     main_win.obj
 0002:00002618       $SG152820                  000000014004f618     main_win.obj
 0002:00002628       $SG152822                  000000014004f628     main_win.obj
 0002:00002630       $SG152952                  000000014004f630     main_win.obj
 0002:00002640       $SG152954                  000000014004f640     main_win.obj
 0002:00002648       $SG152957                  000000014004f648     main_win.obj
 0002:00002660       $SG152959                  000000014004f660     main_win.obj
 0002:00002678       $SG152962                  000000014004f678     main_win.obj
 0002:00002690       $SG152965                  000000014004f690     main_win.obj
 0002:000026a8       $SG152967                  000000014004f6a8     main_win.obj
 0002:000026b8       $SG152969                  000000014004f6b8     main_win.obj
 0002:000026c8       $SG152973                  000000014004f6c8     main_win.obj
 0002:000026d8       $SG152975                  000000014004f6d8     main_win.obj
 0002:000026e8       $SG152982                  000000014004f6e8     main_win.obj
 0002:00002708       $SG152985                  000000014004f708     main_win.obj
 0002:00002718       $SG152989                  000000014004f718     main_win.obj
 0002:00002720       $SG152991                  000000014004f720     main_win.obj
 0002:00002728       $SG153016                  000000014004f728     main_win.obj
 0002:00002740       $SG153085                  000000014004f740     main_win.obj
 0002:00002748       $SG153124                  000000014004f748     main_win.obj
 0002:00002758       $SG153126                  000000014004f758     main_win.obj
 0002:00002768       $SG153129                  000000014004f768     main_win.obj
 0002:00002778       $SG153131                  000000014004f778     main_win.obj
 0002:00002788       $SG153184                  000000014004f788     main_win.obj
 0002:000027a0       $SG153206                  000000014004f7a0     main_win.obj
 0002:000027b8       $SG153223                  000000014004f7b8     main_win.obj
 0002:000027c8       $SG153240                  000000014004f7c8     main_win.obj
 0002:000027d4       $SG171859                  000000014004f7d4     main_win.obj
 0002:000027dc       $SG171860                  000000014004f7dc     main_win.obj
 0002:000027e4       $SG171861                  000000014004f7e4     main_win.obj
 0002:000027ec       $SG171862                  000000014004f7ec     main_win.obj
 0002:000027f4       $SG171863                  000000014004f7f4     main_win.obj
 0002:00002800       $SG171872                  000000014004f800     main_win.obj
 0002:00002810       $SG171888                  000000014004f810     main_win.obj
 0002:00002820       $SG147406                  000000014004f820     main_win.obj
 0002:00002838       $SG147424                  000000014004f838     main_win.obj
 0002:00002848       $SG147443                  000000014004f848     main_win.obj
 0002:00002854       ?tag@?CL@??stbi__process_marker@@YAHPEAUstbi__jpeg@@H@Z@4QBEB 000000014004f854     main_win.obj
 0002:0000285c       ?tag@?DE@??stbi__process_marker@@YAHPEAUstbi__jpeg@@H@Z@4QBEB 000000014004f85c     main_win.obj
 0002:00002864       ?rgb@?BG@??stbi__process_frame_header@@YAHPEAUstbi__jpeg@@H@Z@4QBEB 000000014004f864     main_win.obj
 0002:00002868       ?length_dezigzag@?1??stbi__compute_huffman_codes@@YAHPEAUstbi__zbuf@@@Z@4QBEB 000000014004f868     main_win.obj
 0002:00002880       ?png_sig@?1??stbi__check_png_header@@YAHPEAUstbi__context@@@Z@4QBEB 000000014004f880     main_win.obj
 0002:00002d10       GS_ExceptionPointers       000000014004fd10     LIBCMT:gs_report.obj
 0002:00002d40       ?tokenTable@@3QBUStringLiteral@@B 000000014004fd40     libvcruntime:undname.obj
 0002:00002e50       ?nameTable@@3QBUStringLiteral@@B 000000014004fe50     libvcruntime:undname.obj
 0002:00003380       ?rttiTable@@3QBUStringLiteral@@B 0000000140050380     libvcruntime:undname.obj
 0002:000033d0       ?IndirectionName@@3QBUStringLiteral@@B 00000001400503d0     libvcruntime:undname.obj
 0002:00003430       ?PrefixName@@3QBUStringLiteral@@B 0000000140050430     libvcruntime:undname.obj
 0002:00003b18       ?module_names@?A0x14174aea@@3QBQEB_WB 0000000140050b18     libvcruntime:winapi_downlevel.obj
 0002:00003bd8       ?candidate_modules@?1??try_get_FlsAlloc@@YAP6AKP6AXPEAX@Z@ZXZ@4QBW4module_id@?A0x14174aea@@B 0000000140050bd8     libvcruntime:winapi_downlevel.obj
 0002:00003bf0       ?candidate_modules@?1??try_get_FlsFree@@YAP6AHK@ZXZ@4QBW4module_id@?A0x14174aea@@B 0000000140050bf0     libvcruntime:winapi_downlevel.obj
 0002:00003c00       ?candidate_modules@?1??try_get_FlsGetValue@@YAP6APEAXK@ZXZ@4QBW4module_id@?A0x14174aea@@B 0000000140050c00     libvcruntime:winapi_downlevel.obj
 0002:00003c18       ?candidate_modules@?1??try_get_FlsSetValue@@YAP6AHKPEAX@ZXZ@4QBW4module_id@?A0x14174aea@@B 0000000140050c18     libvcruntime:winapi_downlevel.obj
 0002:00003c30       ?candidate_modules@?1??try_get_InitializeCriticalSectionEx@@YAP6AHPEAU_RTL_CRITICAL_SECTION@@KK@ZXZ@4QBW4module_id@?A0x14174aea@@B 0000000140050c30     libvcruntime:winapi_downlevel.obj
 0002:00003c60       ?ExceptionTemplate@?1??UnwindNestedFrames@__FrameHandler3@@SAXPEA_KPEAUEHExceptionRecord@@PEAU_CONTEXT@@0PEAXPEBU_s_FuncInfo@@HHPEBU_s_HandlerType@@PEAU_xDISPATCHER_CONTEXT@@E@Z@4U_EXCEPTION_RECORD@@B 0000000140050c60     libvcruntime:risctrnsctrl.obj
 0002:00004e50       ?atan_jby256@?1??atan2f@@9@9 0000000140051e50     libucrt:atan2f.obj
 0002:00005670       L_real_one                 0000000140052670     libucrt:cosf.obj
 0002:00005680       L_one_half                 0000000140052680     libucrt:cosf.obj
 0002:00005690       L_2bypi                    0000000140052690     libucrt:cosf.obj
 0002:000056a0       L_one_sixth                00000001400526a0     libucrt:cosf.obj
 0002:000056b0       L_piby2                    00000001400526b0     libucrt:cosf.obj
 0002:000056c0       L_piby2_1                  00000001400526c0     libucrt:cosf.obj
 0002:000056d0       L_piby2_1tail              00000001400526d0     libucrt:cosf.obj
 0002:000056e0       L_piby2_2                  00000001400526e0     libucrt:cosf.obj
 0002:000056f0       L_piby2_2tail              00000001400526f0     libucrt:cosf.obj
 0002:00005700       L_large_x_sse2             0000000140052700     libucrt:cosf.obj
 0002:00005710       L_large_x_fma3             0000000140052710     libucrt:cosf.obj
 0002:00005720       L_sign_mask                0000000140052720     libucrt:cosf.obj
 0002:00005730       L__int_three               0000000140052730     libucrt:cosf.obj
 0002:00005740       L__min_norm_double         0000000140052740     libucrt:cosf.obj
 0002:00005750       L_two_to_neg_7             0000000140052750     libucrt:cosf.obj
 0002:00005760       L_two_to_neg_13            0000000140052760     libucrt:cosf.obj
 0002:00005770       L_two_to_32_float          0000000140052770     libucrt:cosf.obj
 0002:00005778       L_one_float                0000000140052778     libucrt:cosf.obj
 0002:00005780       L_inf_mask_32              0000000140052780     libucrt:cosf.obj
 0002:000057a0       __flag_x_one_y_snan        00000001400527a0     libucrt:powf.obj
 0002:000057a4       __flag_x_zero_z_inf        00000001400527a4     libucrt:powf.obj
 0002:000057a8       __flag_x_nan               00000001400527a8     libucrt:powf.obj
 0002:000057ac       __flag_y_nan               00000001400527ac     libucrt:powf.obj
 0002:000057b0       __flag_x_nan_y_nan         00000001400527b0     libucrt:powf.obj
 0002:000057b4       __flag_x_neg_y_notint      00000001400527b4     libucrt:powf.obj
 0002:000057b8       __flag_z_zero              00000001400527b8     libucrt:powf.obj
 0002:000057bc       __flag_z_denormal          00000001400527bc     libucrt:powf.obj
 0002:000057c0       __flag_z_inf               00000001400527c0     libucrt:powf.obj
 0002:000057c4       L__1_by_3                  00000001400527c4     libucrt:powf.obj
 0002:000057cc       L__log2                    00000001400527cc     libucrt:powf.obj
 0002:000057d4       L__max_exp_arg             00000001400527d4     libucrt:powf.obj
 0002:000057dc       L__min_exp_arg             00000001400527dc     libucrt:powf.obj
 0002:000057e4       L__real_log2_by_64         00000001400527e4     libucrt:powf.obj
 0002:000057ec       L__1_by_6                  00000001400527ec     libucrt:powf.obj
 0002:000057f4       L__real_threshold          00000001400527f4     libucrt:powf.obj
 0002:000057fc       L__real_one                00000001400527fc     libucrt:powf.obj
 0002:00005804       L__real_two                0000000140052804     libucrt:powf.obj
 0002:0000580c       L__neg_zero                000000014005280c     libucrt:powf.obj
 0002:00005820       L__real_ca42               0000000140052820     libucrt:powf.obj
 0002:00005828       L__real_ca4                0000000140052828     libucrt:powf.obj
 0002:00005830       L__real_ca31               0000000140052830     libucrt:powf.obj
 0002:00005838       L__real_ca3                0000000140052838     libucrt:powf.obj
 0002:00005840       L__clear_sign              0000000140052840     libucrt:powf.obj
 0002:00005850       L__real_64_by_log2         0000000140052850     libucrt:powf.obj
 0002:00005860       L__1_by_2                  0000000140052860     libucrt:powf.obj
 0002:00005870       L__1023                    0000000140052870     libucrt:powf.obj
 0002:00005880       L__xexp_bits_xmantissa_bits 0000000140052880     libucrt:powf.obj
 0002:000060a0       L_signbit                  00000001400530a0     libucrt:sinf.obj
 0002:000060b0       L_sign_mask                00000001400530b0     libucrt:sinf.obj
 0002:000060c0       L_one                      00000001400530c0     libucrt:sinf.obj
 0002:000060d0       L_int_three                00000001400530d0     libucrt:sinf.obj
 0002:000060e0       L_one_half                 00000001400530e0     libucrt:sinf.obj
 0002:000060f0       L_twobypi                  00000001400530f0     libucrt:sinf.obj
 0002:00006100       L_piby2_1                  0000000140053100     libucrt:sinf.obj
 0002:00006110       L_one_sixth                0000000140053110     libucrt:sinf.obj
 0002:00006120       L_piby2_1tail              0000000140053120     libucrt:sinf.obj
 0002:00006130       L_piby2_2                  0000000140053130     libucrt:sinf.obj
 0002:00006140       L_piby2_2tail              0000000140053140     libucrt:sinf.obj
 0002:00006150       L_inf_mask_32              0000000140053150     libucrt:sinf.obj
 0002:00006160       L_int_two                  0000000140053160     libucrt:sinf.obj
 0002:00006170       L_piby2_lead               0000000140053170     libucrt:sinf.obj
 0002:00006180       L_piby4                    0000000140053180     libucrt:sinf.obj
 0002:00006190       L_mask_3f2                 0000000140053190     libucrt:sinf.obj
 0002:000061a0       L_mask_3f8                 00000001400531a0     libucrt:sinf.obj
 0002:000061b0       L_large_x_fma3             00000001400531b0     libucrt:sinf.obj
 0002:000061b8       L_large_x_sse2             00000001400531b8     libucrt:sinf.obj
 0002:000061c0       L_near_one                 00000001400531c0     libucrt:sinf.obj
 0002:000061c8       L_two_to_32                00000001400531c8     libucrt:sinf.obj
 0002:000061e0       L_sign_mask                00000001400531e0     libucrt:tanf.obj
 0002:000061f0       L_twobypi                  00000001400531f0     libucrt:tanf.obj
 0002:00006200       L_int_three                0000000140053200     libucrt:tanf.obj
 0002:00006210       L_int_one                  0000000140053210     libucrt:tanf.obj
 0002:00006220       L_signbit                  0000000140053220     libucrt:tanf.obj
 0002:00006230       L_tanf                     0000000140053230     libucrt:tanf.obj
 0002:00006258       L_large_x_sse2             0000000140053258     libucrt:tanf.obj
 0002:00006260       L_large_x_fma3             0000000140053260     libucrt:tanf.obj
 0002:00006268       L_point_333                0000000140053268     libucrt:tanf.obj
 0002:00006270       L_mask_3e4                 0000000140053270     libucrt:tanf.obj
 0002:00006278       L_mask_3f2                 0000000140053278     libucrt:tanf.obj
 0002:00006280       L_point_five               0000000140053280     libucrt:tanf.obj
 0002:00006288       L_piby2_1                  0000000140053288     libucrt:tanf.obj
 0002:00006290       L_piby2_1tail              0000000140053290     libucrt:tanf.obj
 0002:00006298       L_piby2_lead               0000000140053298     libucrt:tanf.obj
 0002:000062a0       L_n_one                    00000001400532a0     libucrt:tanf.obj
 0002:000062a8       L_piby4                    00000001400532a8     libucrt:tanf.obj
 0002:000062b0       L_min_norm                 00000001400532b0     libucrt:tanf.obj
 0002:000062b8       L_near_one_f               00000001400532b8     libucrt:tanf.obj
 0002:000062c0       L_inf_mask_32              00000001400532c0     libucrt:tanf.obj
 0002:000062c8       L_two_to_32                00000001400532c8     libucrt:tanf.obj
 0002:000063a8       $cppxdata$__dcrt_uninitialize_environments_nolock 00000001400533a8     libucrt:environment_initialization.obj
 0002:000063d0       $cppxdata$?try_cor_exit_process@@YAXI@Z 00000001400533d0     libucrt:exit.obj
 0002:000063f8       $cppxdata$?common_exit@@YAXHW4_crt_exit_cleanup_mode@@W4_crt_exit_return_mode@@@Z 00000001400533f8     libucrt:exit.obj
 0002:00006448       $cppxdata$_execute_onexit_table 0000000140053448     libucrt:onexit.obj
 0002:00006470       __acrt_initializers        0000000140053470     libucrt:initialization.obj
 0002:00006b70       ?errtable@@3QBUerrentry@?A0x31fdb9ec@@B 0000000140053b70     libucrt:errno.obj
 0002:00007370       ?_names@?1??_get_fname@@9@4QBU<unnamed-type-_names>@?1??1@YAPEADI@Z@B 0000000140054370     libucrt:fpexcept.obj
 0002:00007610       ?module_names@?A0x391cf84c@@3QBQEB_WB 0000000140054610     libucrt:winapi_thunks.obj
 0002:00007b18       ?candidate_modules@?1??try_get_AreFileApisANSI@@YAP6AHXZXZ@4QBW4module_id@?A0x391cf84c@@B 0000000140054b18     libucrt:winapi_thunks.obj
 0002:00007b30       ?candidate_modules@?1??try_get_GetActiveWindow@@YAP6APEAUHWND__@@XZXZ@4QBW4module_id@?A0x391cf84c@@B 0000000140054b30     libucrt:winapi_thunks.obj
 0002:00007b48       ?candidate_modules@?1??try_get_GetLastActivePopup@@YAP6APEAUHWND__@@PEAU2@@ZXZ@4QBW4module_id@?A0x391cf84c@@B 0000000140054b48     libucrt:winapi_thunks.obj
 0002:00007b68       ?candidate_modules@?1??try_get_GetProcessWindowStation@@YAP6APEAUHWINSTA__@@XZXZ@4QBW4module_id@?A0x391cf84c@@B 0000000140054b68     libucrt:winapi_thunks.obj
 0002:00007b88       ?candidate_modules@?1??try_get_GetUserObjectInformationW@@YAP6AHPEAXH0KPEAK@ZXZ@4QBW4module_id@?A0x391cf84c@@B 0000000140054b88     libucrt:winapi_thunks.obj
 0002:00007bb0       ?candidate_modules@?1??try_get_InitializeCriticalSectionEx@@YAP6AHPEAU_RTL_CRITICAL_SECTION@@KK@ZXZ@4QBW4module_id@?A0x391cf84c@@B 0000000140054bb0     libucrt:winapi_thunks.obj
 0002:00007bb8       ?candidate_modules@?1??try_get_LCMapStringEx@@YAP6AHPEB_WK0HPEA_WHPEAU_nlsversioninfo@@PEAX_J@ZXZ@4QBW4module_id@?A0x391cf84c@@B 0000000140054bb8     libucrt:winapi_thunks.obj
 0002:00007bd0       ?candidate_modules@?1??try_get_LocaleNameToLCID@@YAP6AKPEB_WK@ZXZ@4QBW4module_id@?A0x391cf84c@@B 0000000140054bd0     libucrt:winapi_thunks.obj
 0002:00007bf0       ?candidate_modules@?1??try_get_MessageBoxA@@YAP6AHPEAUHWND__@@PEBD1I@ZXZ@4QBW4module_id@?A0x391cf84c@@B 0000000140054bf0     libucrt:winapi_thunks.obj
 0002:00007c08       ?candidate_modules@?1??try_get_MessageBoxW@@YAP6AHPEAUHWND__@@PEB_W1I@ZXZ@4QBW4module_id@?A0x391cf84c@@B 0000000140054c08     libucrt:winapi_thunks.obj
 0002:00007c1c       ?candidate_modules@?1??try_get_AppPolicyGetProcessTerminationMethod@@YAP6AJPEAXPEAW4AppPolicyProcessTerminationMethod@@@ZXZ@4QBW4module_id@?A0x391cf84c@@B 0000000140054c1c     libucrt:winapi_thunks.obj
 0002:00007c48       ?candidate_modules@?1??try_get_AppPolicyGetShowDeveloperDiagnostic@@YAP6AJPEAXPEAW4AppPolicyShowDeveloperDiagnostic@@@ZXZ@4QBW4module_id@?A0x391cf84c@@B 0000000140054c48     libucrt:winapi_thunks.obj
 0002:00007c74       ?candidate_modules@?1??try_get_AppPolicyGetWindowingModel@@YAP6AJPEAXPEAW4AppPolicyWindowingModel@@@ZXZ@4QBW4module_id@?A0x391cf84c@@B 0000000140054c74     libucrt:winapi_thunks.obj
 0002:00007cb0       $cppxdata$?write_double_translated_ansi_nolock@@YA?AUwrite_result@?A0x17268360@@HQEBDIAEAV__crt_cached_ptd_host@@@Z 0000000140054cb0     libucrt:write.obj
 0002:00007ce0       ?strings@?1??fp_format_nan_or_infinity@@YAHW4__acrt_fp_class@@_NPEAD_K1@Z@4QAY03QEBDA 0000000140054ce0     libucrt:cvt.obj
 0002:00007dc0       L__piby2                   0000000140054dc0     libucrt:remainder_piby2f_forasm.obj
 0002:00007dd0       L_piby2_lead               0000000140054dd0     libucrt:remainder_piby2_forfma3.obj
 0002:00007de0       L_fff800                   0000000140054de0     libucrt:remainder_piby2_forfma3.obj
 0002:00007df0       L_piby2_part1              0000000140054df0     libucrt:remainder_piby2_forfma3.obj
 0002:00007e00       L_piby2_part2              0000000140054e00     libucrt:remainder_piby2_forfma3.obj
 0002:00007e10       L_piby2_part3              0000000140054e10     libucrt:remainder_piby2_forfma3.obj
 0002:00007e20       L_piby2_1                  0000000140054e20     libucrt:remainder_piby2_forfma3.obj
 0002:00007e30       L_piby2_2                  0000000140054e30     libucrt:remainder_piby2_forfma3.obj
 0002:00007e40       L_piby2_3                  0000000140054e40     libucrt:remainder_piby2_forfma3.obj
 0002:00007e50       L_piby2_1tail              0000000140054e50     libucrt:remainder_piby2_forfma3.obj
 0002:00007e60       L_piby2_2tail              0000000140054e60     libucrt:remainder_piby2_forfma3.obj
 0002:00007e70       L_piby2_3tail              0000000140054e70     libucrt:remainder_piby2_forfma3.obj
 0002:00007e80       L_sign_mask                0000000140054e80     libucrt:remainder_piby2_forfma3.obj
 0002:00007e90       L_twobypi                  0000000140054e90     libucrt:remainder_piby2_forfma3.obj
 0002:00007ea0       L_point_five               0000000140054ea0     libucrt:remainder_piby2_forfma3.obj
 0002:00007eb0       L_int_three                0000000140054eb0     libucrt:remainder_piby2_forfma3.obj
 0002:00007ec0       L_inf_mask_64              0000000140054ec0     libucrt:remainder_piby2_forfma3.obj
 0002:00007ed0       L_signbit                  0000000140054ed0     libucrt:remainder_piby2_forfma3.obj
 0002:00007ee0       L_r                        0000000140054ee0     libucrt:remainder_piby2_forfma3.obj
 0002:00007ef0       L_xc1                      0000000140054ef0     libucrt:remainder_piby2_forfma3.obj
 0002:00007f00       L_xc2                      0000000140054f00     libucrt:remainder_piby2_forfma3.obj
 0002:00007f10       L_xc3                      0000000140054f10     libucrt:remainder_piby2_forfma3.obj
 0002:00007f20       L_sigma                    0000000140054f20     libucrt:remainder_piby2_forfma3.obj
 0002:00008a60       L__piby2                   0000000140055a60     libucrt:remainder_piby2f_forc.obj
 0002:00008a70       L__2_by_pi_bits            0000000140055a70     libucrt:remainder_piby2f_forc.obj
 0002:00008b10       ?_mb_locale_names@@3QBQEB_WB 0000000140055b10     libucrt:mbctype.obj
 0002:00008b80       __real@433fffffffffffff    0000000140055b80     libucrt:fpsr.obj
 0002:00008b88       __real@c33fffffffffffff    0000000140055b88     libucrt:fpsr.obj
 0002:00008b90       ?LcidToLocaleNameTable@?A0x881e4c05@@3QBULcidToLocaleName@1@B 0000000140055b90     libucrt:lcidtoname_downlevel.obj
 0002:0000a5f0       ?LocaleNameToIndexTable@?A0x881e4c05@@3QBULocaleNameIndex@1@B 00000001400575f0     libucrt:lcidtoname_downlevel.obj
 0002:0000bec0       __real_ninf                0000000140058ec0     libucrt:log10.obj
 0002:0000bed0       __real_inf                 0000000140058ed0     libucrt:log10.obj
 0002:0000bee0       __real_neg_qnan            0000000140058ee0     libucrt:log10.obj
 0002:0000bef0       __real_qnanbit             0000000140058ef0     libucrt:log10.obj
 0002:0000bf00       __int_1023                 0000000140058f00     libucrt:log10.obj
 0002:0000bf10       __mask_001                 0000000140058f10     libucrt:log10.obj
 0002:0000bf20       __mask_mant                0000000140058f20     libucrt:log10.obj
 0002:0000bf30       __mask_mant_top8           0000000140058f30     libucrt:log10.obj
 0002:0000bf40       __mask_mant9               0000000140058f40     libucrt:log10.obj
 0002:0000bf50       __real_log10_e             0000000140058f50     libucrt:log10.obj
 0002:0000bf60       __real_log10_e_lead        0000000140058f60     libucrt:log10.obj
 0002:0000bf70       __real_log10_e_tail        0000000140058f70     libucrt:log10.obj
 0002:0000bf80       __real_log10_2_lead        0000000140058f80     libucrt:log10.obj
 0002:0000bf90       __real_log10_2_tail        0000000140058f90     libucrt:log10.obj
 0002:0000bfa0       __real_two                 0000000140058fa0     libucrt:log10.obj
 0002:0000bfb0       __real_one                 0000000140058fb0     libucrt:log10.obj
 0002:0000bfc0       __real_half                0000000140058fc0     libucrt:log10.obj
 0002:0000bfd0       __mask_100                 0000000140058fd0     libucrt:log10.obj
 0002:0000bfe0       __real_1_over_512          0000000140058fe0     libucrt:log10.obj
 0002:0000bff0       __real_1_over_2            0000000140058ff0     libucrt:log10.obj
 0002:0000c000       __real_1_over_3            0000000140059000     libucrt:log10.obj
 0002:0000c010       __real_1_over_4            0000000140059010     libucrt:log10.obj
 0002:0000c020       __real_1_over_5            0000000140059020     libucrt:log10.obj
 0002:0000c030       __real_1_over_6            0000000140059030     libucrt:log10.obj
 0002:0000c040       __real_neg_1023            0000000140059040     libucrt:log10.obj
 0002:0000c050       __mask_2045                0000000140059050     libucrt:log10.obj
 0002:0000c060       __real_threshold           0000000140059060     libucrt:log10.obj
 0002:0000c070       __real_near_one_lt         0000000140059070     libucrt:log10.obj
 0002:0000c080       __real_near_one_gt         0000000140059080     libucrt:log10.obj
 0002:0000c090       __real_min_norm            0000000140059090     libucrt:log10.obj
 0002:0000c0a0       __real_notsign             00000001400590a0     libucrt:log10.obj
 0002:0000c0b0       __real_ca1                 00000001400590b0     libucrt:log10.obj
 0002:0000c0c0       __real_ca2                 00000001400590c0     libucrt:log10.obj
 0002:0000c0d0       __real_ca3                 00000001400590d0     libucrt:log10.obj
 0002:0000c0e0       __real_ca4                 00000001400590e0     libucrt:log10.obj
 0002:0000c0f0       __mask_lower               00000001400590f0     libucrt:log10.obj
 0002:0000c100       __flag_x_zero              0000000140059100     libucrt:log10.obj
 0002:0000c104       __flag_x_neg               0000000140059104     libucrt:log10.obj
 0002:0000c108       __flag_x_nan               0000000140059108     libucrt:log10.obj
 0002:0000db88       ?stbi__de_iphone_flag_set@@3HA 000000014005ab88     main_win.obj
 0002:0000db8c       ?stbi__de_iphone_flag_local@@3HA 000000014005ab8c     main_win.obj
 0002:0000db90       ?stbi__unpremultiply_on_load_set@@3HA 000000014005ab90     main_win.obj
 0002:0000db94       ?stbi__unpremultiply_on_load_local@@3HA 000000014005ab94     main_win.obj
 0002:0000db98       ?stbi__vertically_flip_on_load_set@@3HA 000000014005ab98     main_win.obj
 0002:0000db9c       ?stbi__vertically_flip_on_load_local@@3HA 000000014005ab9c     main_win.obj
 0002:0000dba0       ?stbi__g_failure_reason@@3PEBDEB 000000014005aba0     main_win.obj
 0002:0000dbb0       $unwind$WinMain            000000014005abb0     main_win.obj
 0002:0000dbb8       $unwind$stbi_load_from_memory 000000014005abb8     main_win.obj
 0002:0000dbc8       $unwind$stbi_load_from_callbacks 000000014005abc8     main_win.obj
 0002:0000dbd8       $unwind$stbi_load          000000014005abd8     main_win.obj
 0002:0000dbe0       $unwind$stbi_load_from_file 000000014005abe0     main_win.obj
 0002:0000dbf0       $unwind$stbi_load_gif_from_memory 000000014005abf0     main_win.obj
 0002:0000dc00       $unwind$stbi_load_16_from_memory 000000014005ac00     main_win.obj
 0002:0000dc10       $unwind$stbi_load_16_from_callbacks 000000014005ac10     main_win.obj
 0002:0000dc20       $unwind$stbi_load_16       000000014005ac20     main_win.obj
 0002:0000dc28       $unwind$stbi_load_from_file_16 000000014005ac28     main_win.obj
 0002:0000dc38       $unwind$stbi_loadf_from_memory 000000014005ac38     main_win.obj
 0002:0000dc48       $unwind$stbi_loadf_from_callbacks 000000014005ac48     main_win.obj
 0002:0000dc58       $unwind$stbi_loadf         000000014005ac58     main_win.obj
 0002:0000dc60       $unwind$stbi_loadf_from_file 000000014005ac60     main_win.obj
 0002:0000dc70       $unwind$stbi_is_hdr_from_callbacks 000000014005ac70     main_win.obj
 0002:0000dc80       $unwind$stbi_is_hdr_from_memory 000000014005ac80     main_win.obj
 0002:0000dc90       $unwind$stbi_is_hdr        000000014005ac90     main_win.obj
 0002:0000dc98       $unwind$stbi_is_hdr_from_file 000000014005ac98     main_win.obj
 0002:0000dca8       $unwind$stbi_image_free    000000014005aca8     main_win.obj
 0002:0000dcb0       $unwind$stbi_info_from_memory 000000014005acb0     main_win.obj
 0002:0000dcc0       $unwind$stbi_info_from_callbacks 000000014005acc0     main_win.obj
 0002:0000dcd0       $unwind$stbi_is_16_bit_from_memory 000000014005acd0     main_win.obj
 0002:0000dce0       $unwind$stbi_is_16_bit_from_callbacks 000000014005ace0     main_win.obj
 0002:0000dcf0       $unwind$stbi_info          000000014005acf0     main_win.obj
 0002:0000dcf8       $unwind$stbi_info_from_file 000000014005acf8     main_win.obj
 0002:0000dd08       $unwind$stbi_is_16_bit     000000014005ad08     main_win.obj
 0002:0000dd10       $unwind$stbi_is_16_bit_from_file 000000014005ad10     main_win.obj
 0002:0000dd20       $unwind$stbi_zlib_decode_malloc_guesssize 000000014005ad20     main_win.obj
 0002:0000dd30       $unwind$stbi_zlib_decode_malloc_guesssize_headerflag 000000014005ad30     main_win.obj
 0002:0000dd40       $unwind$stbi_zlib_decode_malloc 000000014005ad40     main_win.obj
 0002:0000dd48       $unwind$stbi_zlib_decode_buffer 000000014005ad48     main_win.obj
 0002:0000dd58       $unwind$stbi_zlib_decode_noheader_malloc 000000014005ad58     main_win.obj
 0002:0000dd68       $unwind$stbi_zlib_decode_noheader_buffer 000000014005ad68     main_win.obj
 0002:0000dd78       $unwind$?stbi__cpuid3@@YAHXZ 000000014005ad78     main_win.obj
 0002:0000dd88       $unwind$?stbi__sse2_available@@YAHXZ 000000014005ad88     main_win.obj
 0002:0000dd90       $unwind$?stbi__refill_buffer@@YAXPEAUstbi__context@@@Z 000000014005ad90     main_win.obj
 0002:0000dd98       $unwind$?stbi__start_mem@@YAXPEAUstbi__context@@PEBEH@Z 000000014005ad98     main_win.obj
 0002:0000dda0       $unwind$?stbi__start_callbacks@@YAXPEAUstbi__context@@PEAUstbi_io_callbacks@@PEAX@Z 000000014005ada0     main_win.obj
 0002:0000ddac       $unwind$?stbi__stdio_read@@YAHPEAXPEADH@Z 000000014005adac     main_win.obj
 0002:0000ddb4       $unwind$?stbi__stdio_skip@@YAXPEAXH@Z 000000014005adb4     main_win.obj
 0002:0000ddbc       $unwind$?stbi__stdio_eof@@YAHPEAX@Z 000000014005adbc     main_win.obj
 0002:0000ddc4       $unwind$?stbi__start_file@@YAXPEAUstbi__context@@PEAU_iobuf@@@Z 000000014005adc4     main_win.obj
 0002:0000ddcc       $unwind$?stbi__jpeg_test@@YAHPEAUstbi__context@@@Z 000000014005adcc     main_win.obj
 0002:0000ddd4       $unwind$?stbi__jpeg_load@@YAPEAXPEAUstbi__context@@PEAH11HPEAUstbi__result_info@@@Z 000000014005add4     main_win.obj
 0002:0000dddc       $unwind$?stbi__jpeg_info@@YAHPEAUstbi__context@@PEAH11@Z 000000014005addc     main_win.obj
 0002:0000dde4       $unwind$?stbi__png_test@@YAHPEAUstbi__context@@@Z 000000014005ade4     main_win.obj
 0002:0000ddec       $unwind$?stbi__png_load@@YAPEAXPEAUstbi__context@@PEAH11HPEAUstbi__result_info@@@Z 000000014005adec     main_win.obj
 0002:0000ddf4       $unwind$?stbi__png_info@@YAHPEAUstbi__context@@PEAH11@Z 000000014005adf4     main_win.obj
 0002:0000ddfc       $unwind$?stbi__png_is16@@YAHPEAUstbi__context@@@Z 000000014005adfc     main_win.obj
 0002:0000de04       $unwind$?stbi__bmp_test@@YAHPEAUstbi__context@@@Z 000000014005ae04     main_win.obj
 0002:0000de0c       $unwind$?stbi__bmp_load@@YAPEAXPEAUstbi__context@@PEAH11HPEAUstbi__result_info@@@Z 000000014005ae0c     main_win.obj
 0002:0000de1c       $unwind$?stbi__bmp_info@@YAHPEAUstbi__context@@PEAH11@Z 000000014005ae1c     main_win.obj
 0002:0000de2c       $unwind$?stbi__tga_test@@YAHPEAUstbi__context@@@Z 000000014005ae2c     main_win.obj
 0002:0000de34       $unwind$?stbi__tga_load@@YAPEAXPEAUstbi__context@@PEAH11HPEAUstbi__result_info@@@Z 000000014005ae34     main_win.obj
 0002:0000de40       $unwind$?stbi__tga_info@@YAHPEAUstbi__context@@PEAH11@Z 000000014005ae40     main_win.obj
 0002:0000de48       $unwind$?stbi__psd_test@@YAHPEAUstbi__context@@@Z 000000014005ae48     main_win.obj
 0002:0000de50       $unwind$?stbi__psd_load@@YAPEAXPEAUstbi__context@@PEAH11HPEAUstbi__result_info@@H@Z 000000014005ae50     main_win.obj
 0002:0000de58       $unwind$?stbi__psd_info@@YAHPEAUstbi__context@@PEAH11@Z 000000014005ae58     main_win.obj
 0002:0000de60       $unwind$?stbi__psd_is16@@YAHPEAUstbi__context@@@Z 000000014005ae60     main_win.obj
 0002:0000de68       $unwind$?stbi__hdr_test@@YAHPEAUstbi__context@@@Z 000000014005ae68     main_win.obj
 0002:0000de70       $unwind$?stbi__hdr_load@@YAPEAMPEAUstbi__context@@PEAH11HPEAUstbi__result_info@@@Z 000000014005ae70     main_win.obj
 0002:0000de80       $unwind$?stbi__hdr_info@@YAHPEAUstbi__context@@PEAH11@Z 000000014005ae80     main_win.obj
 0002:0000de90       $unwind$?stbi__pic_test@@YAHPEAUstbi__context@@@Z 000000014005ae90     main_win.obj
 0002:0000de98       $unwind$?stbi__pic_load@@YAPEAXPEAUstbi__context@@PEAH11HPEAUstbi__result_info@@@Z 000000014005ae98     main_win.obj
 0002:0000dea0       $unwind$?stbi__pic_info@@YAHPEAUstbi__context@@PEAH11@Z 000000014005aea0     main_win.obj
 0002:0000deb0       $unwind$?stbi__gif_test@@YAHPEAUstbi__context@@@Z 000000014005aeb0     main_win.obj
 0002:0000deb8       $unwind$?stbi__gif_load@@YAPEAXPEAUstbi__context@@PEAH11HPEAUstbi__result_info@@@Z 000000014005aeb8     main_win.obj
 0002:0000decc       $unwind$?stbi__load_gif_main@@YAPEAXPEAUstbi__context@@PEAPEAHPEAH222H@Z 000000014005aecc     main_win.obj
 0002:0000dee0       $unwind$?stbi__gif_info@@YAHPEAUstbi__context@@PEAH11@Z 000000014005aee0     main_win.obj
 0002:0000dee8       $unwind$?stbi__pnm_test@@YAHPEAUstbi__context@@@Z 000000014005aee8     main_win.obj
 0002:0000def0       $unwind$?stbi__pnm_load@@YAPEAXPEAUstbi__context@@PEAH11HPEAUstbi__result_info@@@Z 000000014005aef0     main_win.obj
 0002:0000def8       $unwind$?stbi__pnm_info@@YAHPEAUstbi__context@@PEAH11@Z 000000014005aef8     main_win.obj
 0002:0000df00       $unwind$?stbi__pnm_is16@@YAHPEAUstbi__context@@@Z 000000014005af00     main_win.obj
 0002:0000df08       $unwind$?stbi__malloc@@YAPEAX_K@Z 000000014005af08     main_win.obj
 0002:0000df10       $unwind$?stbi__addsizes_valid@@YAHHH@Z 000000014005af10     main_win.obj
 0002:0000df18       $unwind$?stbi__mul2sizes_valid@@YAHHH@Z 000000014005af18     main_win.obj
 0002:0000df20       $unwind$?stbi__mad2sizes_valid@@YAHHHH@Z 000000014005af20     main_win.obj
 0002:0000df28       $unwind$?stbi__mad3sizes_valid@@YAHHHHH@Z 000000014005af28     main_win.obj
 0002:0000df30       $unwind$?stbi__mad4sizes_valid@@YAHHHHHH@Z 000000014005af30     main_win.obj
 0002:0000df38       $unwind$?stbi__malloc_mad2@@YAPEAXHHH@Z 000000014005af38     main_win.obj
 0002:0000df40       $unwind$?stbi__malloc_mad3@@YAPEAXHHHH@Z 000000014005af40     main_win.obj
 0002:0000df48       $unwind$?stbi__malloc_mad4@@YAPEAXHHHHH@Z 000000014005af48     main_win.obj
 0002:0000df50       $unwind$?stbi__ldr_to_hdr@@YAPEAMPEAEHHH@Z 000000014005af50     main_win.obj
 0002:0000df58       $unwind$?stbi__hdr_to_ldr@@YAPEAEPEAMHHH@Z 000000014005af58     main_win.obj
 0002:0000df60       $unwind$?stbi__load_main@@YAPEAXPEAUstbi__context@@PEAH11HPEAUstbi__result_info@@H@Z 000000014005af60     main_win.obj
 0002:0000df68       $unwind$?stbi__convert_16_to_8@@YAPEAEPEAGHHH@Z 000000014005af68     main_win.obj
 0002:0000df70       $unwind$?stbi__convert_8_to_16@@YAPEAGPEAEHHH@Z 000000014005af70     main_win.obj
 0002:0000df78       $unwind$?stbi__vertical_flip@@YAXPEAXHHH@Z 000000014005af78     main_win.obj
 0002:0000df8c       $unwind$?stbi__vertical_flip_slices@@YAXPEAXHHHH@Z 000000014005af8c     main_win.obj
 0002:0000df94       $unwind$?stbi__load_and_postprocess_8bit@@YAPEAEPEAUstbi__context@@PEAH11H@Z 000000014005af94     main_win.obj
 0002:0000dfa4       $unwind$?stbi__load_and_postprocess_16bit@@YAPEAGPEAUstbi__context@@PEAH11H@Z 000000014005afa4     main_win.obj
 0002:0000dfb4       $unwind$?stbi__float_postprocess@@YAXPEAMPEAH11H@Z 000000014005afb4     main_win.obj
 0002:0000dfbc       $unwind$?stbi__fopen@@YAPEAU_iobuf@@PEBD0@Z 000000014005afbc     main_win.obj
 0002:0000dfc4       $unwind$?stbi__loadf_main@@YAPEAMPEAUstbi__context@@PEAH11H@Z 000000014005afc4     main_win.obj
 0002:0000dfd4       $unwind$?stbi__get8@@YAEPEAUstbi__context@@@Z 000000014005afd4     main_win.obj
 0002:0000dfdc       $unwind$?stbi__at_eof@@YAHPEAUstbi__context@@@Z 000000014005afdc     main_win.obj
 0002:0000dfe4       $unwind$?stbi__skip@@YAXPEAUstbi__context@@H@Z 000000014005afe4     main_win.obj
 0002:0000dfec       $unwind$?stbi__getn@@YAHPEAUstbi__context@@PEAEH@Z 000000014005afec     main_win.obj
 0002:0000dff8       $unwind$?stbi__get16be@@YAHPEAUstbi__context@@@Z 000000014005aff8     main_win.obj
 0002:0000e000       $unwind$?stbi__get32be@@YAIPEAUstbi__context@@@Z 000000014005b000     main_win.obj
 0002:0000e008       $unwind$?stbi__get16le@@YAHPEAUstbi__context@@@Z 000000014005b008     main_win.obj
 0002:0000e010       $unwind$?stbi__get32le@@YAIPEAUstbi__context@@@Z 000000014005b010     main_win.obj
 0002:0000e018       $unwind$?stbi__convert_format@@YAPEAEPEAEHHII@Z 000000014005b018     main_win.obj
 0002:0000e020       $unwind$?stbi__convert_format16@@YAPEAGPEAGHHII@Z 000000014005b020     main_win.obj
 0002:0000e028       $unwind$?stbi__build_huffman@@YAHPEAUstbi__huffman@@PEAH@Z 000000014005b028     main_win.obj
 0002:0000e030       $unwind$?stbi__build_fast_ac@@YAXPEAFPEAUstbi__huffman@@@Z 000000014005b030     main_win.obj
 0002:0000e038       $unwind$?stbi__grow_buffer_unsafe@@YAXPEAUstbi__jpeg@@@Z 000000014005b038     main_win.obj
 0002:0000e040       $unwind$?stbi__jpeg_huff_decode@@YAHPEAUstbi__jpeg@@PEAUstbi__huffman@@@Z 000000014005b040     main_win.obj
 0002:0000e048       $unwind$?stbi__extend_receive@@YAHPEAUstbi__jpeg@@H@Z 000000014005b048     main_win.obj
 0002:0000e050       $unwind$?stbi__jpeg_get_bits@@YAHPEAUstbi__jpeg@@H@Z 000000014005b050     main_win.obj
 0002:0000e058       $unwind$?stbi__jpeg_get_bit@@YAHPEAUstbi__jpeg@@@Z 000000014005b058     main_win.obj
 0002:0000e060       $unwind$?stbi__jpeg_decode_block@@YAHPEAUstbi__jpeg@@QEAFPEAUstbi__huffman@@2PEAFHPEAG@Z 000000014005b060     main_win.obj
 0002:0000e068       $unwind$?stbi__jpeg_decode_block_prog_dc@@YAHPEAUstbi__jpeg@@QEAFPEAUstbi__huffman@@H@Z 000000014005b068     main_win.obj
 0002:0000e070       $unwind$?stbi__jpeg_decode_block_prog_ac@@YAHPEAUstbi__jpeg@@QEAFPEAUstbi__huffman@@PEAF@Z 000000014005b070     main_win.obj
 0002:0000e078       $unwind$?stbi__idct_block@@YAXPEAEHQEAF@Z 000000014005b078     main_win.obj
 0002:0000e088       $unwind$?stbi__idct_simd@@YAXPEAEHQEAF@Z 000000014005b088     main_win.obj
 0002:0000e090       $unwind$?stbi__get_marker@@YAEPEAUstbi__jpeg@@@Z 000000014005b090     main_win.obj
 0002:0000e098       $unwind$?stbi__jpeg_reset@@YAXPEAUstbi__jpeg@@@Z 000000014005b098     main_win.obj
 0002:0000e0a0       $unwind$?stbi__parse_entropy_coded_data@@YAHPEAUstbi__jpeg@@@Z 000000014005b0a0     main_win.obj
 0002:0000e0b0       $unwind$?stbi__jpeg_dequantize@@YAXPEAFPEAG@Z 000000014005b0b0     main_win.obj
 0002:0000e0b8       $unwind$?stbi__jpeg_finish@@YAXPEAUstbi__jpeg@@@Z 000000014005b0b8     main_win.obj
 0002:0000e0c0       $unwind$?stbi__process_marker@@YAHPEAUstbi__jpeg@@H@Z 000000014005b0c0     main_win.obj
 0002:0000e0d0       $unwind$?stbi__process_scan_header@@YAHPEAUstbi__jpeg@@@Z 000000014005b0d0     main_win.obj
 0002:0000e0d8       $unwind$?stbi__free_jpeg_components@@YAHPEAUstbi__jpeg@@HH@Z 000000014005b0d8     main_win.obj
 0002:0000e0e0       $unwind$?stbi__process_frame_header@@YAHPEAUstbi__jpeg@@H@Z 000000014005b0e0     main_win.obj
 0002:0000e0e8       $unwind$?stbi__decode_jpeg_header@@YAHPEAUstbi__jpeg@@H@Z 000000014005b0e8     main_win.obj
 0002:0000e0f0       $unwind$?stbi__decode_jpeg_image@@YAHPEAUstbi__jpeg@@@Z 000000014005b0f0     main_win.obj
 0002:0000e0f8       $unwind$?stbi__resample_row_v_2@@YAPEAEPEAE00HH@Z 000000014005b0f8     main_win.obj
 0002:0000e100       $unwind$?stbi__resample_row_h_2@@YAPEAEPEAE00HH@Z 000000014005b100     main_win.obj
 0002:0000e108       $unwind$?stbi__resample_row_hv_2@@YAPEAEPEAE00HH@Z 000000014005b108     main_win.obj
 0002:0000e110       $unwind$?stbi__resample_row_hv_2_simd@@YAPEAEPEAE00HH@Z 000000014005b110     main_win.obj
 0002:0000e118       $unwind$?stbi__resample_row_generic@@YAPEAEPEAE00HH@Z 000000014005b118     main_win.obj
 0002:0000e120       $unwind$?stbi__YCbCr_to_RGB_row@@YAXPEAEPEBE11HH@Z 000000014005b120     main_win.obj
 0002:0000e128       $unwind$?stbi__YCbCr_to_RGB_simd@@YAXPEAEPEBE11HH@Z 000000014005b128     main_win.obj
 0002:0000e130       $unwind$?stbi__setup_jpeg@@YAXPEAUstbi__jpeg@@@Z 000000014005b130     main_win.obj
 0002:0000e138       $unwind$?stbi__cleanup_jpeg@@YAXPEAUstbi__jpeg@@@Z 000000014005b138     main_win.obj
 0002:0000e140       $unwind$?stbi__blinn_8x8@@YAEEE@Z 000000014005b140     main_win.obj
 0002:0000e148       $unwind$?load_jpeg_image@@YAPEAEPEAUstbi__jpeg@@PEAH11H@Z 000000014005b148     main_win.obj
 0002:0000e158       $unwind$?stbi__jpeg_info_raw@@YAHPEAUstbi__jpeg@@PEAH11@Z 000000014005b158     main_win.obj
 0002:0000e160       $unwind$?stbi__bit_reverse@@YAHHH@Z 000000014005b160     main_win.obj
 0002:0000e168       $unwind$?stbi__zbuild_huffman@@YAHPEAUstbi__zhuffman@@PEBEH@Z 000000014005b168     main_win.obj
 0002:0000e17c       $unwind$?stbi__zeof@@YAHPEAUstbi__zbuf@@@Z 000000014005b17c     main_win.obj
 0002:0000e184       $unwind$?stbi__zget8@@YAEPEAUstbi__zbuf@@@Z 000000014005b184     main_win.obj
 0002:0000e18c       $unwind$?stbi__fill_bits@@YAXPEAUstbi__zbuf@@@Z 000000014005b18c     main_win.obj
 0002:0000e194       $unwind$?stbi__zreceive@@YAIPEAUstbi__zbuf@@H@Z 000000014005b194     main_win.obj
 0002:0000e19c       $unwind$?stbi__zhuffman_decode_slowpath@@YAHPEAUstbi__zbuf@@PEAUstbi__zhuffman@@@Z 000000014005b19c     main_win.obj
 0002:0000e1a4       $unwind$?stbi__zhuffman_decode@@YAHPEAUstbi__zbuf@@PEAUstbi__zhuffman@@@Z 000000014005b1a4     main_win.obj
 0002:0000e1ac       $unwind$?stbi__zexpand@@YAHPEAUstbi__zbuf@@PEADH@Z 000000014005b1ac     main_win.obj
 0002:0000e1b4       $unwind$?stbi__parse_huffman_block@@YAHPEAUstbi__zbuf@@@Z 000000014005b1b4     main_win.obj
 0002:0000e1bc       $unwind$?stbi__compute_huffman_codes@@YAHPEAUstbi__zbuf@@@Z 000000014005b1bc     main_win.obj
 0002:0000e1d0       $unwind$?stbi__parse_uncompressed_block@@YAHPEAUstbi__zbuf@@@Z 000000014005b1d0     main_win.obj
 0002:0000e1dc       $unwind$?stbi__parse_zlib_header@@YAHPEAUstbi__zbuf@@@Z 000000014005b1dc     main_win.obj
 0002:0000e1e4       $unwind$?stbi__parse_zlib@@YAHPEAUstbi__zbuf@@H@Z 000000014005b1e4     main_win.obj
 0002:0000e1ec       $unwind$?stbi__do_zlib@@YAHPEAUstbi__zbuf@@PEADHHH@Z 000000014005b1ec     main_win.obj
 0002:0000e1f4       $unwind$?stbi__get_chunk_header@@YA?AUstbi__pngchunk@@PEAUstbi__context@@@Z 000000014005b1f4     main_win.obj
 0002:0000e1fc       $unwind$?stbi__check_png_header@@YAHPEAUstbi__context@@@Z 000000014005b1fc     main_win.obj
 0002:0000e204       $unwind$?stbi__paeth@@YAHHHH@Z 000000014005b204     main_win.obj
 0002:0000e20c       $unwind$?stbi__create_png_image_raw@@YAHPEAUstbi__png@@PEAEIHIIHH@Z 000000014005b20c     main_win.obj
 0002:0000e218       $unwind$?stbi__create_png_image@@YAHPEAUstbi__png@@PEAEIHHHH@Z 000000014005b218     main_win.obj
 0002:0000e22c       $unwind$?stbi__compute_transparency@@YAHPEAUstbi__png@@QEAEH@Z 000000014005b22c     main_win.obj
 0002:0000e234       $unwind$?stbi__compute_transparency16@@YAHPEAUstbi__png@@QEAGH@Z 000000014005b234     main_win.obj
 0002:0000e23c       $unwind$?stbi__expand_png_palette@@YAHPEAUstbi__png@@PEAEHH@Z 000000014005b23c     main_win.obj
 0002:0000e244       $unwind$?stbi__de_iphone@@YAXPEAUstbi__png@@@Z 000000014005b244     main_win.obj
 0002:0000e24c       $unwind$?stbi__parse_png_file@@YAHPEAUstbi__png@@HH@Z 000000014005b24c     main_win.obj
 0002:0000e260       $unwind$?stbi__do_png@@YAPEAXPEAUstbi__png@@PEAH11HPEAUstbi__result_info@@@Z 000000014005b260     main_win.obj
 0002:0000e268       $unwind$?stbi__png_info_raw@@YAHPEAUstbi__png@@PEAH11@Z 000000014005b268     main_win.obj
 0002:0000e270       $unwind$?stbi__bmp_test_raw@@YAHPEAUstbi__context@@@Z 000000014005b270     main_win.obj
 0002:0000e278       $unwind$?stbi__high_bit@@YAHI@Z 000000014005b278     main_win.obj
 0002:0000e280       $unwind$?stbi__shiftsigned@@YAHIHH@Z 000000014005b280     main_win.obj
 0002:0000e288       $unwind$?stbi__bmp_parse_header@@YAPEAXPEAUstbi__context@@PEAUstbi__bmp_data@@@Z 000000014005b288     main_win.obj
 0002:0000e290       $unwind$?stbi__tga_get_comp@@YAHHHPEAH@Z 000000014005b290     main_win.obj
 0002:0000e298       $unwind$?stbi__tga_read_rgb16@@YAXPEAUstbi__context@@PEAE@Z 000000014005b298     main_win.obj
 0002:0000e2a0       $unwind$?stbi__psd_decode_rle@@YAHPEAUstbi__context@@PEAEH@Z 000000014005b2a0     main_win.obj
 0002:0000e2a8       $unwind$?stbi__pic_is4@@YAHPEAUstbi__context@@PEBD@Z 000000014005b2a8     main_win.obj
 0002:0000e2b0       $unwind$?stbi__pic_test_core@@YAHPEAUstbi__context@@@Z 000000014005b2b0     main_win.obj
 0002:0000e2b8       $unwind$?stbi__readval@@YAPEAEPEAUstbi__context@@HPEAE@Z 000000014005b2b8     main_win.obj
 0002:0000e2c0       $unwind$?stbi__copyval@@YAXHPEAEPEBE@Z 000000014005b2c0     main_win.obj
 0002:0000e2c8       $unwind$?stbi__pic_load_core@@YAPEAEPEAUstbi__context@@HHPEAHPEAE@Z 000000014005b2c8     main_win.obj
 0002:0000e2d8       $unwind$?stbi__gif_test_raw@@YAHPEAUstbi__context@@@Z 000000014005b2d8     main_win.obj
 0002:0000e2e0       $unwind$?stbi__gif_parse_colortable@@YAXPEAUstbi__context@@QEAY03EHH@Z 000000014005b2e0     main_win.obj
 0002:0000e2e8       $unwind$?stbi__gif_header@@YAHPEAUstbi__context@@PEAUstbi__gif@@PEAHH@Z 000000014005b2e8     main_win.obj
 0002:0000e2f0       $unwind$?stbi__gif_info_raw@@YAHPEAUstbi__context@@PEAH11@Z 000000014005b2f0     main_win.obj
 0002:0000e2f8       $unwind$?stbi__out_gif_code@@YAXPEAUstbi__gif@@G@Z 000000014005b2f8     main_win.obj
 0002:0000e300       $unwind$?stbi__process_gif_raster@@YAPEAEPEAUstbi__context@@PEAUstbi__gif@@@Z 000000014005b300     main_win.obj
 0002:0000e308       $unwind$?stbi__gif_load_next@@YAPEAEPEAUstbi__context@@PEAUstbi__gif@@PEAHHPEAE@Z 000000014005b308     main_win.obj
 0002:0000e314       $unwind$?stbi__load_gif_main_outofmem@@YAPEAXPEAUstbi__gif@@PEAEPEAPEAH@Z 000000014005b314     main_win.obj
 0002:0000e31c       $unwind$?stbi__hdr_test_core@@YAHPEAUstbi__context@@PEBD@Z 000000014005b31c     main_win.obj
 0002:0000e324       $unwind$?stbi__hdr_gettoken@@YAPEADPEAUstbi__context@@PEAD@Z 000000014005b324     main_win.obj
 0002:0000e32c       $unwind$?stbi__hdr_convert@@YAXPEAMPEAEH@Z 000000014005b32c     main_win.obj
 0002:0000e334       $unwind$?stbi__pnm_isspace@@YAHD@Z 000000014005b334     main_win.obj
 0002:0000e33c       $unwind$?stbi__pnm_skip_whitespace@@YAXPEAUstbi__context@@PEAD@Z 000000014005b33c     main_win.obj
 0002:0000e344       $unwind$?stbi__pnm_isdigit@@YAHD@Z 000000014005b344     main_win.obj
 0002:0000e34c       $unwind$?stbi__pnm_getinteger@@YAHPEAUstbi__context@@PEAD@Z 000000014005b34c     main_win.obj
 0002:0000e354       $unwind$?stbi__info_main@@YAHPEAUstbi__context@@PEAH11@Z 000000014005b354     main_win.obj
 0002:0000e35c       $unwind$?stbi__is_16_main@@YAHPEAUstbi__context@@@Z 000000014005b35c     main_win.obj
 0002:0000e364       $unwind$?m4Ortho@@YAPEAMPEAMMMMMMM@Z 000000014005b364     main_win.obj
 0002:0000e374       $unwind$?newLogEvent@@YA?AUlogEvent@@PEBD0HH@Z 000000014005b374     main_win.obj
 0002:0000e380       $unwind$?LogLog@@YAXHPEBDH0ZZ 000000014005b380     main_win.obj
 0002:0000e38c       $unwind$?vlog@@YAXPEAUlogEvent@@@Z 000000014005b38c     main_win.obj
 0002:0000e394       $unwind$?vlog_ms@@YAXPEAUlogEvent@@@Z 000000014005b394     main_win.obj
 0002:0000e3a4       $unwind$?rectOverlaps@@YACPEAM0@Z 000000014005b3a4     main_win.obj
 0002:0000e3ac       $unwind$?rectContainedBy@@YACPEAM0@Z 000000014005b3ac     main_win.obj
 0002:0000e3b4       $unwind$?rectGetOverlap@@YAPEAMPEAM00@Z 000000014005b3b4     main_win.obj
 0002:0000e3bc       $unwind$?rectUVCull@@YAPEAMPEAM00@Z 000000014005b3bc     main_win.obj
 0002:0000e3cc       $unwind$?f32Equal@@YACMM@Z 000000014005b3cc     main_win.obj
 0002:0000e3d4       $unwind$?v2Distance@@YAMPEAM@Z 000000014005b3d4     main_win.obj
 0002:0000e3dc       $unwind$?v2Normalize@@YAXPEAM@Z 000000014005b3dc     main_win.obj
 0002:0000e3e4       $unwind$?m2Rotate@@YAXPEAMM@Z 000000014005b3e4     main_win.obj
 0002:0000e3ec       $unwind$?m2MultiplyPoint@@YAXPEAM0@Z 000000014005b3ec     main_win.obj
 0002:0000e3f4       $unwind$?mathAtan2@@YAMMM@Z 000000014005b3f4     main_win.obj
 0002:0000e3fc       $unwind$?print_mat4@@YAXU?$mat@$03$03M$0A@@glm@@@Z 000000014005b3fc     main_win.obj
 0002:0000e42c       $unwind$?matrix_look_at@@YA?AU?$mat@$03$03M$0A@@glm@@U?$vec@$02M$0A@@2@00@Z 000000014005b42c     main_win.obj
 0002:0000e440       $unwind$?_matrix_look_at_broken_y@@YA?AU?$mat@$03$03M$0A@@glm@@U?$vec@$02M$0A@@2@00@Z 000000014005b440     main_win.obj
 0002:0000e454       $unwind$?flycamera_process_movement@@YAXPEAUCamera@@HH@Z 000000014005b454     main_win.obj
 0002:0000e460       $unwind$?flycamera_update@@YAXPEAUCamera@@M@Z 000000014005b460     main_win.obj
 0002:0000e46c       $unwind$?camViewMat@@YA?AU?$mat@$03$03M$0A@@glm@@PEAUCamera@@@Z 000000014005b46c     main_win.obj
 0002:0000e478       $unwind$?camProjMat@@YA?AU?$mat@$03$03M$0A@@glm@@PEAUCamera@@@Z 000000014005b478     main_win.obj
 0002:0000e480       $unwind$?flycamera_get_weird_view_matrix@@YA?AU?$mat@$03$03M$0A@@glm@@PEAUCamera@@@Z 000000014005b480     main_win.obj
 0002:0000e48c       $unwind$?camViewPosition@@YA?AU?$vec@$02M$0A@@glm@@PEAUCamera@@@Z 000000014005b48c     main_win.obj
 0002:0000e49c       $unwind$?camViewDirection@@YA?AU?$vec@$02M$0A@@glm@@PEAUCamera@@@Z 000000014005b49c     main_win.obj
 0002:0000e4ac       $unwind$?RenderTextureLoad@@YAXPEAUTexture@@PEBD@Z 000000014005b4ac     main_win.obj
 0002:0000e4b4       $unwind$?RenderTextureFree@@YAXI@Z 000000014005b4b4     main_win.obj
 0002:0000e4bc       $unwind$?RenderInit@@YAXPEAURenderer@@@Z 000000014005b4bc     main_win.obj
 0002:0000e4cc       $unwind$?printShaderLog@@YAXI@Z 000000014005b4cc     main_win.obj
 0002:0000e4dc       $unwind$?printProgramLog@@YAXI@Z 000000014005b4dc     main_win.obj
 0002:0000e4ec       $unwind$?RenderFree@@YAXPEAURenderer@@@Z 000000014005b4ec     main_win.obj
 0002:0000e4f4       $unwind$?RenderBeginFrame@@YAXPEAURenderer@@@Z 000000014005b4f4     main_win.obj
 0002:0000e4fc       $unwind$?RenderEndFrame@@YAXPEAURenderer@@@Z 000000014005b4fc     main_win.obj
 0002:0000e504       $unwind$?RenderPushTriangle@@YAXPEAURenderer@@PEAM11111111I@Z 000000014005b504     main_win.obj
 0002:0000e50c       $unwind$?shader_init@@YA_NPEAUshader_s@@PEBD1@Z 000000014005b50c     main_win.obj
 0002:0000e514       $unwind$?shader_clean@@YAXPEAUshader_s@@@Z 000000014005b514     main_win.obj
 0002:0000e51c       $unwind$?shader_use@@YAXPEAUshader_s@@@Z 000000014005b51c     main_win.obj
 0002:0000e524       $unwind$?shader_4f@@YAXPEAUshader_s@@PEBDMMMM@Z 000000014005b524     main_win.obj
 0002:0000e52c       $unwind$?shader_3f@@YAXPEAUshader_s@@PEBDMMM@Z 000000014005b52c     main_win.obj
 0002:0000e534       $unwind$?shader_1i@@YAXPEAUshader_s@@PEBDH@Z 000000014005b534     main_win.obj
 0002:0000e53c       $unwind$?shader_1f@@YAXPEAUshader_s@@PEBDM@Z 000000014005b53c     main_win.obj
 0002:0000e544       $unwind$?shader_mat4fv@@YAXPEAUshader_s@@PEBDPEBM@Z 000000014005b544     main_win.obj
 0002:0000e54c       $unwind$?TileMapLoadCSV@@YAXPEAUTileMap@@PEBDPEAUTexture@@II@Z 000000014005b54c     main_win.obj
 0002:0000e554       $unwind$?Read2DMap@@YAXPEBDIPEAHIIPEAI2@Z 000000014005b554     main_win.obj
 0002:0000e55c       $unwind$?TileMapTileByPosition@@YAHPEAUTileMap@@PEAM@Z 000000014005b55c     main_win.obj
 0002:0000e564       $unwind$?TileMapUVByIdx@@YAXPEAMPEAUTileMap@@H@Z 000000014005b564     main_win.obj
 0002:0000e56c       $unwind$?RenderExInit@@YAXPEAURendererEx@@@Z 000000014005b56c     main_win.obj
 0002:0000e574       $unwind$?RenderWhiteTexture@@YAIXZ 000000014005b574     main_win.obj
 0002:0000e57c       $unwind$?RenderExFree@@YAXPEAURendererEx@@@Z 000000014005b57c     main_win.obj
 0002:0000e584       $unwind$?RenderPushQuadColor@@YAXPEAURendererEx@@PEAM1@Z 000000014005b584     main_win.obj
 0002:0000e58c       $unwind$?RenderPushQuadTex@@YAXPEAURendererEx@@PEAMI1@Z 000000014005b58c     main_win.obj
 0002:0000e59c       $unwind$?RenderPushQuadSubTex@@YAXPEAURendererEx@@PEAM1I1@Z 000000014005b59c     main_win.obj
 0002:0000e5ac       $unwind$?RenderPushAtlasTile@@YAXPEAURendererEx@@PEAMPEAUTileMap@@I1@Z 000000014005b5ac     main_win.obj
 0002:0000e5bc       $unwind$?RenderPushString@@YAXPEAURendererEx@@PEAMPEBDPEAUTileMap@@1@Z 000000014005b5bc     main_win.obj
 0002:0000e5cc       $unwind$?RenderPushQuadSubTexOrigRot@@YAXPEAURendererEx@@PEAM1I11M@Z 000000014005b5cc     main_win.obj
 0002:0000e5e0       $unwind$?ProjectilePoolInit@@YAXPEAUProjectilePool@@@Z 000000014005b5e0     main_win.obj
 0002:0000e5e8       $unwind$?ProjectilePoolAlloc@@YAPEAUProjectile@@PEAUProjectilePool@@@Z 000000014005b5e8     main_win.obj
 0002:0000e5f0       $unwind$?ProjectilePoolFree@@YAXPEAUProjectilePool@@PEAUProjectile@@@Z 000000014005b5f0     main_win.obj
 0002:0000e5f8       $unwind$?ProjectilePoolCanAlloc@@YACPEAUProjectilePool@@@Z 000000014005b5f8     main_win.obj
 0002:0000e600       $unwind$?towerNew@@YAXPEAUTower@@PEAM@Z 000000014005b600     main_win.obj
 0002:0000e608       $unwind$?app_init@@YA_NPEAUScene@@@Z 000000014005b608     main_win.obj
 0002:0000e610       $unwind$?app_update@@YAXPEAUScene@@M@Z 000000014005b610     main_win.obj
 0002:0000e624       $unwind$?AppClean@@YAXPEAUScene@@@Z 000000014005b624     main_win.obj
 0002:0000e62c       $unwind$?DrawTileMapLayer@@YAXPEAURendererEx@@PEAUTileMap@@@Z 000000014005b62c     main_win.obj
 0002:0000e63c       $unwind$?init@@YA_NXZ      000000014005b63c     main_win.obj
 0002:0000e644       $unwind$?clean@@YAXPEAUScene@@@Z 000000014005b644     main_win.obj
 0002:0000e64c       $unwind$?timeLeft@@YAIXZ   000000014005b64c     main_win.obj
 0002:0000e654       $unwind$?run@@YAHXZ        000000014005b654     main_win.obj
 0002:0000e668       $unwind$??$dot@$02M$0A@@glm@@YAMAEBU?$vec@$02M$0A@@0@0@Z 000000014005b668     main_win.obj
 0002:0000e668       $unwind$??$normalize@$02M$0A@@glm@@YA?AU?$vec@$02M$0A@@0@AEBU10@@Z 000000014005b668     main_win.obj
 0002:0000e668       $unwind$??$transpose@$02$02M$0A@@glm@@YA?AU?$mat@$02$02M$0A@@0@AEBU10@@Z 000000014005b668     main_win.obj
 0002:0000e668       $unwind$?call@?$compute_normalize@$02M$0A@$0A@@detail@glm@@SA?AU?$vec@$02M$0A@@3@AEBU43@@Z 000000014005b668     main_win.obj
 0002:0000e668       $unwind$?ldexp@@YAMMH@Z    000000014005b668     main_win.obj
 0002:0000e668       $unwind$ldexpf             000000014005b668     main_win.obj
 0002:0000e668       $unwind$_local_unwind      000000014005b668     libvcruntime:jmpuwind.obj
 0002:0000e670       $unwind$??$abs@M@glm@@YAMM@Z 000000014005b670     main_win.obj
 0002:0000e670       $unwind$??$inversesqrt@M@glm@@YAMM@Z 000000014005b670     main_win.obj
 0002:0000e670       $unwind$?abs@@YAMM@Z       000000014005b670     main_win.obj
 0002:0000e670       $unwind$?cos@@YAMM@Z       000000014005b670     main_win.obj
 0002:0000e670       $unwind$?sin@@YAMM@Z       000000014005b670     main_win.obj
 0002:0000e670       $unwind$?sqrt@@YAMM@Z      000000014005b670     main_win.obj
 0002:0000e670       $unwind$?tan@@YAMM@Z       000000014005b670     main_win.obj
 0002:0000e678       $unwind$?atan2@@YAMMM@Z    000000014005b678     main_win.obj
 0002:0000e678       $unwind$?fmod@@YAMMM@Z     000000014005b678     main_win.obj
 0002:0000e678       $unwind$?pow@@YAMMM@Z      000000014005b678     main_win.obj
 0002:0000e680       $unwind$??$sprintf_s@$0BE@@@YAHAEAY0BE@DPEBDZZ 000000014005b680     main_win.obj
 0002:0000e680       $unwind$??$sprintf_s@$0BI@@@YAHAEAY0BI@DPEBDZZ 000000014005b680     main_win.obj
 0002:0000e680       $unwind$_vfprintf_l        000000014005b680     main_win.obj
 0002:0000e680       $unwind$_vsnprintf_s       000000014005b680     main_win.obj
 0002:0000e680       $unwind$_vsscanf_s_l       000000014005b680     main_win.obj
 0002:0000e680       $unwind$fprintf            000000014005b680     main_win.obj
 0002:0000e680       $unwind$printf             000000014005b680     main_win.obj
 0002:0000e680       $unwind$snprintf           000000014005b680     main_win.obj
 0002:0000e680       $unwind$sscanf_s           000000014005b680     main_win.obj
 0002:0000e680       $unwind$vsprintf_s         000000014005b680     main_win.obj
 0002:0000e688       $unwind$??$cross@M$0A@@glm@@YA?AU?$vec@$02M$0A@@0@AEBU10@0@Z 000000014005b688     main_win.obj
 0002:0000e688       $unwind$vfprintf           000000014005b688     main_win.obj
 0002:0000e688       $unwind$vsscanf_s          000000014005b688     main_win.obj
 0002:0000e690       $unwind$_vsprintf_s_l      000000014005b690     main_win.obj
 0002:0000e690       $unwind$vsnprintf          000000014005b690     main_win.obj
 0002:0000e698       $unwind$_vsnprintf_s_l     000000014005b698     main_win.obj
 0002:0000e6a0       $unwind$??A?$vec@$02M$0A@@glm@@QEAAAEAMH@Z 000000014005b6a0     main_win.obj
 0002:0000e6a0       $unwind$??A?$vec@$02M$0A@@glm@@QEBAAEBMH@Z 000000014005b6a0     main_win.obj
 0002:0000e6a0       $unwind$??A?$vec@$03M$0A@@glm@@QEAAAEAMH@Z 000000014005b6a0     main_win.obj
 0002:0000e6a0       $unwind$??A?$vec@$03M$0A@@glm@@QEBAAEBMH@Z 000000014005b6a0     main_win.obj
 0002:0000e6a8       $unwind$??$?DM$0A@@glm@@YA?AU?$vec@$03M$0A@@0@AEBU10@0@Z 000000014005b6a8     main_win.obj
 0002:0000e6a8       $unwind$??$?DM$0A@@glm@@YA?AU?$vec@$03M$0A@@0@AEBU10@AEBM@Z 000000014005b6a8     main_win.obj
 0002:0000e6a8       $unwind$??$?HM$0A@@glm@@YA?AU?$vec@$03M$0A@@0@AEBU10@0@Z 000000014005b6a8     main_win.obj
 0002:0000e6b4       $unwind$??$ortho@M@glm@@YA?AU?$mat@$03$03M$0A@@0@MMMMMM@Z 000000014005b6b4     main_win.obj
 0002:0000e6bc       $unwind$??A?$mat@$02$02M$0A@@glm@@QEAAAEAU?$vec@$02M$0A@@1@H@Z 000000014005b6bc     main_win.obj
 0002:0000e6bc       $unwind$??A?$mat@$02$02M$0A@@glm@@QEBAAEBU?$vec@$02M$0A@@1@H@Z 000000014005b6bc     main_win.obj
 0002:0000e6bc       $unwind$??A?$mat@$03$03M$0A@@glm@@QEAAAEAU?$vec@$03M$0A@@1@H@Z 000000014005b6bc     main_win.obj
 0002:0000e6bc       $unwind$??A?$mat@$03$03M$0A@@glm@@QEBAAEBU?$vec@$03M$0A@@1@H@Z 000000014005b6bc     main_win.obj
 0002:0000e6c4       $unwind$??$?GM$0A@@glm@@YA?AU?$vec@$02M$0A@@0@AEBU10@@Z 000000014005b6c4     main_win.obj
 0002:0000e6c4       $unwind$??0?$mat@$03$03M$0A@@glm@@QEAA@AEBM@Z 000000014005b6c4     main_win.obj
 0002:0000e6c4       $unwind$??0?$mat@$03$03M$0A@@glm@@QEAA@AEBU?$mat@$02$02M$0A@@1@@Z 000000014005b6c4     main_win.obj
 0002:0000e6c4       $unwind$?call@?$compute_dot@U?$vec@$02M$0A@@glm@@M$0A@@detail@glm@@SAMAEBU?$vec@$02M$0A@@3@0@Z 000000014005b6c4     main_win.obj
 0002:0000e6cc       $unwind$??$length@$02M$0A@@glm@@YAMAEBU?$vec@$02M$0A@@0@@Z 000000014005b6cc     main_win.obj
 0002:0000e6cc       $unwind$??$value_ptr@M$0A@@glm@@YAPEAMAEAU?$mat@$03$03M$0A@@0@@Z 000000014005b6cc     main_win.obj
 0002:0000e6cc       $unwind$??$value_ptr@M$0A@@glm@@YAPEBMAEBU?$mat@$03$03M$0A@@0@@Z 000000014005b6cc     main_win.obj
 0002:0000e6cc       $unwind$?call@?$compute_length@$02M$0A@$0A@@detail@glm@@SAMAEBU?$vec@$02M$0A@@3@@Z 000000014005b6cc     main_win.obj
 0002:0000e6cc       $unwind$_putwch_nolock     000000014005b6cc     libucrt:putwch.obj
 0002:0000e6d4       $unwind$??$?DM$0A@@glm@@YA?AU?$vec@$02M$0A@@0@AEBU10@0@Z 000000014005b6d4     main_win.obj
 0002:0000e6d4       $unwind$??$?GM$0A@@glm@@YA?AU?$vec@$02M$0A@@0@AEBU10@0@Z 000000014005b6d4     main_win.obj
 0002:0000e6d4       $unwind$??$?HM$0A@@glm@@YA?AU?$vec@$02M$0A@@0@AEBU10@0@Z 000000014005b6d4     main_win.obj
 0002:0000e6d4       $unwind$?call@?$compute_cross@M$0A@$0A@@detail@glm@@SA?AU?$vec@$02M$0A@@3@AEBU43@0@Z 000000014005b6d4     main_win.obj
 0002:0000e6dc       $unwind$??0?$mat@$02$02M$0A@@glm@@QEAA@AEBU?$vec@$02M$0A@@1@00@Z 000000014005b6dc     main_win.obj
 0002:0000e6e8       $unwind$??$translate@M$0A@@glm@@YA?AU?$mat@$03$03M$0A@@0@AEBU10@AEBU?$vec@$02M$0A@@0@@Z 000000014005b6e8     main_win.obj
 0002:0000e6fc       $unwind$??$?DM$0A@@glm@@YA?AU?$vec@$03M$0A@@0@AEBU?$mat@$03$03M$0A@@0@AEBU10@@Z 000000014005b6fc     main_win.obj
 0002:0000e708       $unwind$??$?DM$0A@@glm@@YA?AU?$mat@$03$03M$0A@@0@AEBU10@0@Z 000000014005b708     main_win.obj
 0002:0000e71c       $unwind$??$?DM$0A@@glm@@YA?AU?$vec@$02M$0A@@0@AEBU10@M@Z 000000014005b71c     main_win.obj
 0002:0000e724       $unwind$??$perspective@M@glm@@YA?AU?$mat@$03$03M$0A@@0@MMMM@Z 000000014005b724     main_win.obj
 0002:0000e72c       $unwind$??$?XM@?$vec@$03M$0A@@glm@@QEAAAEAU01@M@Z 000000014005b72c     main_win.obj
 0002:0000e738       $unwind$?call@?$compute_abs@M$00@detail@glm@@SAMM@Z 000000014005b738     main_win.obj
 0002:0000e740       $unwind$??$orthoRH_NO@M@glm@@YA?AU?$mat@$03$03M$0A@@0@MMMMMM@Z 000000014005b740     main_win.obj
 0002:0000e740       $unwind$??$perspectiveRH_NO@M@glm@@YA?AU?$mat@$03$03M$0A@@0@MMMM@Z 000000014005b740     main_win.obj
 0002:0000e754       $unwind$?call@?$compute_transpose@$02$02M$0A@$0A@@detail@glm@@SA?AU?$mat@$02$02M$0A@@3@AEBU43@@Z 000000014005b754     main_win.obj
 0002:0000e768       $unwind$?call@?$compute_vec4_add@M$0A@$0A@@detail@glm@@SA?AU?$vec@$03M$0A@@3@AEBU43@0@Z 000000014005b768     main_win.obj
 0002:0000e768       $unwind$?call@?$compute_vec4_mul@M$0A@$0A@@detail@glm@@SA?AU?$vec@$03M$0A@@3@AEBU43@0@Z 000000014005b768     main_win.obj
 0002:0000e768       $unwind$??$common_assert_to_stderr@_W@@YAXQEB_W0I@Z 000000014005b768     libucrt:assert.obj
 0002:0000e770       $unwind$??$?XM@?$vec@$03M$0A@@glm@@QEAAAEAU01@AEBU01@@Z 000000014005b770     main_win.obj
 0002:0000e770       $unwind$??$?YM@?$vec@$03M$0A@@glm@@QEAAAEAU01@AEBU01@@Z 000000014005b770     main_win.obj
 0002:0000e77c       $unwind$__report_securityfailure 000000014005b77c     LIBCMT:gs_report.obj
 0002:0000e784       $unwind$__scrt_initialize_default_local_stdio_options 000000014005b784     LIBCMT:default_local_stdio_options.obj
 0002:0000e784       $unwind$?post_pgo_initialization@@YAHXZ 000000014005b784     LIBCMT:exe_winmain.obj
 0002:0000e784       $unwind$?pre_cpp_initialization@@YAXXZ 000000014005b784     LIBCMT:exe_winmain.obj
 0002:0000e784       $unwind$WinMainCRTStartup  000000014005b784     LIBCMT:exe_winmain.obj
 0002:0000e784       $unwind$__report_rangecheckfailure 000000014005b784     LIBCMT:gs_report.obj
 0002:0000e784       $unwind$__GSHandlerCheck   000000014005b784     LIBCMT:gshandler.obj
 0002:0000e784       $unwind$__scrt_acquire_startup_lock 000000014005b784     LIBCMT:utility.obj
 0002:0000e784       $unwind$atexit             000000014005b784     LIBCMT:utility.obj
 0002:0000e784       $unwind$__scrt_is_managed_app 000000014005b784     LIBCMT:utility_desktop.obj
 0002:0000e784       $unwind$__current_exception 000000014005b784     libvcruntime:ehhelpers.obj
 0002:0000e784       $unwind$__current_exception_context 000000014005b784     libvcruntime:ehhelpers.obj
 0002:0000e784       $unwind$__std_terminate    000000014005b784     libvcruntime:ehhelpers.obj
 0002:0000e784       $unwind$?GetCurrentState@__FrameHandler3@@SAHPEA_KPEAU_xDISPATCHER_CONTEXT@@PEBU_s_FuncInfo@@@Z 000000014005b784     libvcruntime:ehstate.obj
 0002:0000e784       $unwind$__vcrt_initialize  000000014005b784     libvcruntime:initialization.obj
 0002:0000e784       $unwind$__vcrt_uninitialize 000000014005b784     libvcruntime:initialization.obj
 0002:0000e784       $unwind$__vcrt_freefls     000000014005b784     libvcruntime:per_thread_data.obj
 0002:0000e784       $unwind$__vcrt_getptd      000000014005b784     libvcruntime:per_thread_data.obj
 0002:0000e784       $unwind$__vcrt_initialize_ptd 000000014005b784     libvcruntime:per_thread_data.obj
 0002:0000e784       $unwind$__vcrt_uninitialize_ptd 000000014005b784     libvcruntime:per_thread_data.obj
 0002:0000e784       $unwind$_GetImageBase      000000014005b784     libvcruntime:risctrnsctrl.obj
 0002:0000e784       $unwind$_GetThrowImageBase 000000014005b784     libvcruntime:risctrnsctrl.obj
 0002:0000e784       $unwind$__dcrt_terminate_console_output 000000014005b784     libucrt:initcon.obj
 0002:0000e784       $unwind$??$uninitialize_environment_internal@D@@YAXAEAPEAPEAD@Z 000000014005b784     libucrt:environment_initialization.obj
 0002:0000e784       $unwind$??$uninitialize_environment_internal@_W@@YAXAEAPEAPEA_W@Z 000000014005b784     libucrt:environment_initialization.obj
 0002:0000e784       $unwind$__acrt_initialize_heap 000000014005b784     libucrt:heap_handle.obj
 0002:0000e784       $unwind$_msize_base        000000014005b784     libucrt:msize.obj
 0002:0000e784       $unwind$_set_new_mode      000000014005b784     libucrt:new_mode.obj
 0002:0000e784       $unwind$?initialize_multibyte@@YAHXZ 000000014005b784     libucrt:multibyte_initializer.obj
 0002:0000e784       $unwind$__acrt_uninitialize 000000014005b784     libucrt:initialization.obj
 0002:0000e784       $unwind$initialize_c       000000014005b784     libucrt:initialization.obj
 0002:0000e784       $unwind$uninitialize_allocated_io_buffers 000000014005b784     libucrt:initialization.obj
 0002:0000e784       $unwind$uninitialize_environment 000000014005b784     libucrt:initialization.obj
 0002:0000e784       $unwind$__acrt_initialize_ptd 000000014005b784     libucrt:per_thread_data.obj
 0002:0000e784       $unwind$__acrt_uninitialize_ptd 000000014005b784     libucrt:per_thread_data.obj
 0002:0000e784       $unwind$__acrt_AreFileApisANSI 000000014005b784     libucrt:winapi_thunks.obj
 0002:0000e784       $unwind$__pctype_func      000000014005b784     libucrt:ctype.obj
 0002:0000e784       $unwind$__acrt_release_locale_ref 000000014005b784     libucrt:locale_refcounting.obj
 0002:0000e784       $unwind$_isatty            000000014005b784     libucrt:isatty.obj
 0002:0000e784       $unwind$_get_osfhandle     000000014005b784     libucrt:osfinfo.obj
 0002:0000e784       $unwind$_get_fmode         000000014005b784     libucrt:setmode.obj
 0002:0000e784       $unwind$_set_fmode         000000014005b784     libucrt:setmode.obj
 0002:0000e784       $unwind$__acrt_initialize_multibyte 000000014005b784     libucrt:mbctype.obj
 0002:0000e784       $unwind$__acrt_update_thread_multibyte_data 000000014005b784     libucrt:mbctype.obj
 0002:0000e784       $unwind$__doserrno         000000014005b784     libucrt:errno.obj
 0002:0000e784       $unwind$_errno             000000014005b784     libucrt:errno.obj
 0002:0000e784       $unwind$_invoke_watson     000000014005b784     libucrt:invalid_parameter.obj
 0002:0000e784       $unwind$_set_error_mode    000000014005b784     libucrt:set_error_mode.obj
 0002:0000e784       $unwind$abort              000000014005b784     libucrt:abort.obj
 0002:0000e784       $unwind$__acrt_initialize_command_line 000000014005b784     libucrt:argv_data.obj
 0002:0000e784       $unwind$?should_call_terminate_process@@YA_NXZ 000000014005b784     libucrt:exit.obj
 0002:0000e784       $unwind$_register_thread_local_exe_atexit_callback 000000014005b784     libucrt:exit.obj
 0002:0000e784       $unwind$feof               000000014005b784     libucrt:feoferr.obj
 0002:0000e784       $unwind$ferror             000000014005b784     libucrt:feoferr.obj
 0002:0000e784       $unwind$_fgetc_nolock      000000014005b784     libucrt:fgetc.obj
 0002:0000e784       $unwind$_fileno            000000014005b784     libucrt:fileno.obj
 0002:0000e784       $unwind$?validate_stream_is_ansi_if_required@?$__acrt_stdio_char_traits@D@@SA_NQEAU_iobuf@@@Z 000000014005b784     libucrt:output.obj
 0002:0000e784       $unwind$_strnicmp          000000014005b784     libucrt:strnicmp.obj
 0002:0000e784       $unwind$_statfp            000000014005b784     libucrt:fpctrl.obj
 0002:0000e784       $unwind$fegetround         000000014005b784     libucrt:fegetround.obj
 0002:0000e784       $unwind$_set_errno_from_matherr 000000014005b784     libucrt:fpexcept.obj
 0002:0000e78c       $unwind$__report_gsfailure 000000014005b78c     LIBCMT:gs_report.obj
 0002:0000e794       $unwind$capture_current_context 000000014005b794     LIBCMT:gs_report.obj
 0002:0000e7a0       $unwind$capture_previous_context 000000014005b7a0     LIBCMT:gs_report.obj
 0002:0000e7ac       $unwind$?pre_c_initialization@@YAHXZ 000000014005b7ac     LIBCMT:exe_winmain.obj
 0002:0000e7ac       $unwind$__raise_securityfailure 000000014005b7ac     LIBCMT:gs_report.obj
 0002:0000e7ac       $unwind$??_Gtype_info@@UEAAPEAXI@Z 000000014005b7ac     LIBCMT:std_type_info_static.obj
 0002:0000e7ac       $unwind$__scrt_initialize_crt 000000014005b7ac     LIBCMT:utility.obj
 0002:0000e7ac       $unwind$__scrt_initialize_onexit_tables 000000014005b7ac     LIBCMT:utility.obj
 0002:0000e7ac       $unwind$__scrt_release_startup_lock 000000014005b7ac     LIBCMT:utility.obj
 0002:0000e7ac       $unwind$__scrt_uninitialize_crt 000000014005b7ac     LIBCMT:utility.obj
 0002:0000e7ac       $unwind$_onexit            000000014005b7ac     LIBCMT:utility.obj
 0002:0000e7ac       $unwind$_IsExceptionObjectToBeDestroyed 000000014005b7ac     libvcruntime:ehhelpers.obj
 0002:0000e7ac       $unwind$?GetUnwindTryBlock@__FrameHandler3@@SAHPEA_KPEAU_xDISPATCHER_CONTEXT@@PEBU_s_FuncInfo@@@Z 000000014005b7ac     libvcruntime:ehstate.obj
 0002:0000e7ac       $unwind$?StateFromIp@__FrameHandler3@@SAHPEBU_s_FuncInfo@@PEAU_xDISPATCHER_CONTEXT@@_K@Z 000000014005b7ac     libvcruntime:ehstate.obj
 0002:0000e7ac       $unwind$??0bad_exception@std@@QEAA@AEBV01@@Z 000000014005b7ac     libvcruntime:frame.obj
 0002:0000e7ac       $unwind$??0exception@std@@QEAA@AEBV01@@Z 000000014005b7ac     libvcruntime:frame.obj
 0002:0000e7ac       $unwind$__vcrt_initialize_locks 000000014005b7ac     libvcruntime:locks.obj
 0002:0000e7ac       $unwind$__vcrt_uninitialize_locks 000000014005b7ac     libvcruntime:locks.obj
 0002:0000e7ac       $unwind$?ExecutionInCatch@__FrameHandler3@@SA_NPEAU_xDISPATCHER_CONTEXT@@PEBU_s_FuncInfo@@@Z 000000014005b7ac     libvcruntime:risctrnsctrl.obj
 0002:0000e7ac       $unwind$_CreateFrameInfo   000000014005b7ac     libvcruntime:risctrnsctrl.obj
 0002:0000e7ac       $unwind$_SetImageBase      000000014005b7ac     libvcruntime:risctrnsctrl.obj
 0002:0000e7ac       $unwind$_SetThrowImageBase 000000014005b7ac     libvcruntime:risctrnsctrl.obj
 0002:0000e7ac       $unwind$__std_exception_destroy 000000014005b7ac     libvcruntime:std_exception.obj
 0002:0000e7ac       $unwind$__vcrt_FlsAlloc    000000014005b7ac     libvcruntime:winapi_downlevel.obj
 0002:0000e7ac       $unwind$__vcrt_FlsFree     000000014005b7ac     libvcruntime:winapi_downlevel.obj
 0002:0000e7ac       $unwind$__vcrt_FlsGetValue 000000014005b7ac     libvcruntime:winapi_downlevel.obj
 0002:0000e7ac       $unwind$_calloc_base       000000014005b7ac     libucrt:calloc_base.obj
 0002:0000e7ac       $unwind$_malloc_base       000000014005b7ac     libucrt:malloc_base.obj
 0002:0000e7ac       $unwind$_callnewh          000000014005b7ac     libucrt:new_handler.obj
 0002:0000e7ac       $unwind$initialize_pointers 000000014005b7ac     libucrt:initialization.obj
 0002:0000e7ac       $unwind$uninitialize_allocated_memory 000000014005b7ac     libucrt:initialization.obj
 0002:0000e7ac       $unwind$__acrt_initialize_locks 000000014005b7ac     libucrt:locks.obj
 0002:0000e7ac       $unwind$__acrt_uninitialize_locks 000000014005b7ac     libucrt:locks.obj
 0002:0000e7ac       $unwind$__acrt_getptd_head 000000014005b7ac     libucrt:per_thread_data.obj
 0002:0000e7ac       $unwind$__acrt_get_developer_information_policy 000000014005b7ac     libucrt:win_policies.obj
 0002:0000e7ac       $unwind$__acrt_get_process_end_policy 000000014005b7ac     libucrt:win_policies.obj
 0002:0000e7ac       $unwind$__acrt_get_windowing_model_policy 000000014005b7ac     libucrt:win_policies.obj
 0002:0000e7ac       $unwind$__acrt_AppPolicyGetProcessTerminationMethodInternal 000000014005b7ac     libucrt:winapi_thunks.obj
 0002:0000e7ac       $unwind$__acrt_AppPolicyGetShowDeveloperDiagnosticInternal 000000014005b7ac     libucrt:winapi_thunks.obj
 0002:0000e7ac       $unwind$__acrt_AppPolicyGetWindowingModelInternal 000000014005b7ac     libucrt:winapi_thunks.obj
 0002:0000e7ac       $unwind$__acrt_get_parent_window 000000014005b7ac     libucrt:winapi_thunks.obj
 0002:0000e7ac       $unwind$__acrt_uninitialize_winapi_thunks 000000014005b7ac     libucrt:winapi_thunks.obj
 0002:0000e7ac       $unwind$__acrt_update_locale_info 000000014005b7ac     libucrt:locale_update.obj
 0002:0000e7ac       $unwind$__acrt_update_locale_info_explicit 000000014005b7ac     libucrt:locale_update.obj
 0002:0000e7ac       $unwind$__acrt_update_multibyte_info 000000014005b7ac     libucrt:locale_update.obj
 0002:0000e7ac       $unwind$__acrt_update_multibyte_info_explicit 000000014005b7ac     libucrt:locale_update.obj
 0002:0000e7ac       $unwind$_configthreadlocale 000000014005b7ac     libucrt:wsetlocale.obj
 0002:0000e7ac       $unwind$__acrt_errno_map_os_error 000000014005b7ac     libucrt:errno.obj
 0002:0000e7ac       $unwind$__acrt_errno_map_os_error_ptd 000000014005b7ac     libucrt:errno.obj
 0002:0000e7ac       $unwind$__acrt_allocate_buffer_for_argv 000000014005b7ac     libucrt:argv_parsing.obj
 0002:0000e7ac       $unwind$?exit_or_terminate_process@@YAXI@Z 000000014005b7ac     libucrt:exit.obj
 0002:0000e7ac       $unwind$__acrt_uninitialize_stdio 000000014005b7ac     libucrt:_file.obj
 0002:0000e7ac       $unwind$?stream_is_at_end_of_file_nolock@@YA_NV__crt_stdio_stream@@@Z 000000014005b7ac     libucrt:_flsbuf.obj
 0002:0000e7ac       $unwind$__acrt_stdio_free_buffer_nolock 000000014005b7ac     libucrt:_freebuf.obj
 0002:0000e7ac       $unwind$__acrt_should_use_temporary_buffer 000000014005b7ac     libucrt:_sftbuf.obj
 0002:0000e7ac       $unwind$?scan_optional_field_width@?$format_string_parser@D@__crt_stdio_input@@AEAA_NXZ 000000014005b7ac     libucrt:input.obj
 0002:0000e7ac       $unwind$?type_case_s@?$output_processor@DV?$stream_output_adapter@D@__crt_stdio_output@@V?$standard_base@DV?$stream_output_adapter@D@__crt_stdio_output@@@2@@__crt_stdio_output@@AEAA_NXZ 000000014005b7ac     libucrt:output.obj
 0002:0000e7ac       $unwind$?type_case_s@?$output_processor@DV?$string_output_adapter@D@__crt_stdio_output@@V?$format_validation_base@DV?$string_output_adapter@D@__crt_stdio_output@@@2@@__crt_stdio_output@@AEAA_NXZ 000000014005b7ac     libucrt:output.obj
 0002:0000e7ac       $unwind$?type_case_s@?$output_processor@DV?$string_output_adapter@D@__crt_stdio_output@@V?$standard_base@DV?$string_output_adapter@D@__crt_stdio_output@@@2@@__crt_stdio_output@@AEAA_NXZ 000000014005b7ac     libucrt:output.obj
 0002:0000e7ac       $unwind$strcpy_s           000000014005b7ac     libucrt:strcpy_s.obj
 0002:0000e7ac       $unwind$wcscat_s           000000014005b7ac     libucrt:wcscat_s.obj
 0002:0000e7ac       $unwind$wcscpy_s           000000014005b7ac     libucrt:wcscpy_s.obj
 0002:0000e7ac       $unwind$_clrfp             000000014005b7ac     libucrt:fpctrl.obj
 0002:0000e7ac       $unwind$_set_statfp        000000014005b7ac     libucrt:fpctrl.obj
 0002:0000e7ac       $unwind$_clearfp           000000014005b7ac     libucrt:ieee.obj
 0002:0000e7ac       $unwind$_controlfp_s       000000014005b7ac     libucrt:contrlfp.obj
 0002:0000e7ac       $unwind$fegetenv           000000014005b7ac     libucrt:fegetenv.obj
 0002:0000e7ac       $unwind$feholdexcept       000000014005b7ac     libucrt:feholdexcept.obj
 0002:0000e7ac       $unwind$fesetenv           000000014005b7ac     libucrt:fesetenv.obj
 0002:0000e7b4       $unwind$__GSHandlerCheckCommon 000000014005b7b4     LIBCMT:gshandler.obj
 0002:0000e7c0       $xdatasym                  000000014005b7c0     LIBCMT:chkstk.obj
 0002:0000e7c8       $xdatasym                  000000014005b7c8     LIBCMT:amdsecgs.obj
 0002:0000e7cc       $unwind$?__scrt_common_main_seh@@YAHXZ 000000014005b7cc     LIBCMT:exe_winmain.obj
 0002:0000e800       $unwind$?filt$0@?0??__scrt_common_main_seh@@YAHXZ@4HA 000000014005b800     LIBCMT:exe_winmain.obj
 0002:0000e800       $unwind$_IsNonwritableInCurrentImage$filt$0 000000014005b800     LIBCMT:pesect.obj
 0002:0000e800       $unwind$?filt$0@?0??CxxCallCatchBlock@__FrameHandler3@@SAPEAXPEAU_EXCEPTION_RECORD@@@Z@4HA 000000014005b800     libvcruntime:frame.obj
 0002:0000e800       $unwind$?filt$0@?0??FrameUnwindToState@__FrameHandler3@@SAXPEA_KPEAU_xDISPATCHER_CONTEXT@@PEBU_s_FuncInfo@@H@Z@4HA 000000014005b800     libvcruntime:frame.obj
 0002:0000e800       $unwind$?fin$1@?0??FrameUnwindToState@__FrameHandler3@@SAXPEA_KPEAU_xDISPATCHER_CONTEXT@@PEBU_s_FuncInfo@@H@Z@4HA 000000014005b800     libvcruntime:frame.obj
 0002:0000e800       $unwind$_query_new_handler$fin$0 000000014005b800     libucrt:new_handler.obj
 0002:0000e800       $unwind$?fin$0@?0???$?RV<lambda_0ae27a3a962d80f24befdcbee591983d>@@AEAV<lambda_8d0ee55de4b1038c4002e0adecdf1839>@@V<lambda_dc504788e8f1664fe9b84e20bfb512f2>@@@?$__crt_seh_guarded_call@X@@QEAAX$$QEAV<lambda_0ae27a3a962d80f24befdcbee591983d>@@AEAV<lambda_8d0ee55de4b1038c4002e0adecdf1839>@@$$QEAV<lambda_dc504788e8f1664fe9b84e20bfb512f2>@@@Z@4HA 000000014005b800     libucrt:per_thread_data.obj
 0002:0000e800       $unwind$?fin$0@?0???$?RV<lambda_2d41944a1d46af3157314b8a01080d33>@@AEAV<lambda_8f455de75cd7d7f24b4096f044d8b9e6>@@V<lambda_aa500f224e6afead328df44964fe2772>@@@?$__crt_seh_guarded_call@X@@QEAAX$$QEAV<lambda_2d41944a1d46af3157314b8a01080d33>@@AEAV<lambda_8f455de75cd7d7f24b4096f044d8b9e6>@@$$QEAV<lambda_aa500f224e6afead328df44964fe2772>@@@Z@4HA 000000014005b800     libucrt:per_thread_data.obj
 0002:0000e800       $unwind$?fin$0@?0???$?RV<lambda_aa87e3671a710a21b5dc78c0bdf72e11>@@AEAV<lambda_92619d2358a28f41a33ba319515a20b9>@@V<lambda_6992ecaafeb10aed2b74cb1fae11a551>@@@?$__crt_seh_guarded_call@X@@QEAAX$$QEAV<lambda_aa87e3671a710a21b5dc78c0bdf72e11>@@AEAV<lambda_92619d2358a28f41a33ba319515a20b9>@@$$QEAV<lambda_6992ecaafeb10aed2b74cb1fae11a551>@@@Z@4HA 000000014005b800     libucrt:per_thread_data.obj
 0002:0000e800       $unwind$?fin$0@?0???$?RV<lambda_f2e299630e499de9f9a165e60fcd3db5>@@AEAV<lambda_2ae9d31cdba2644fcbeaf08da7c24588>@@V<lambda_40d01ff24d0e7b3814fdbdcee8eab3c7>@@@?$__crt_seh_guarded_call@X@@QEAAX$$QEAV<lambda_f2e299630e499de9f9a165e60fcd3db5>@@AEAV<lambda_2ae9d31cdba2644fcbeaf08da7c24588>@@$$QEAV<lambda_40d01ff24d0e7b3814fdbdcee8eab3c7>@@@Z@4HA 000000014005b800     libucrt:per_thread_data.obj
 0002:0000e800       $unwind$__acrt_update_thread_locale_data$fin$0 000000014005b800     libucrt:locale_refcounting.obj
 0002:0000e800       $unwind$?fin$0@?0???$?RV<lambda_410d79af7f07d98d83a3f525b3859a53>@@AEAV<lambda_3e16ef9562a7dcce91392c22ab16ea36>@@V<lambda_38119f0e861e05405d8a144b9b982f0a>@@@?$__crt_seh_guarded_call@X@@QEAAX$$QEAV<lambda_410d79af7f07d98d83a3f525b3859a53>@@AEAV<lambda_3e16ef9562a7dcce91392c22ab16ea36>@@$$QEAV<lambda_38119f0e861e05405d8a144b9b982f0a>@@@Z@4HA 000000014005b800     libucrt:wsetlocale.obj
 0002:0000e800       $unwind$?fin$0@?0???$?RV<lambda_ad8af0d99a0adf03d037d7dffe354bb5>@@AEAV<lambda_c9ba49e555ba839a7b07aa3fbecb7617>@@V<lambda_2f1ebd5d68526518146ae959c9e734c8>@@@?$__crt_seh_guarded_call@H@@QEAAH$$QEAV<lambda_ad8af0d99a0adf03d037d7dffe354bb5>@@AEAV<lambda_c9ba49e555ba839a7b07aa3fbecb7617>@@$$QEAV<lambda_2f1ebd5d68526518146ae959c9e734c8>@@@Z@4HA 000000014005b800     libucrt:close.obj
 0002:0000e800       $unwind$?fin$0@?0???$?RV<lambda_a37b2b86f63e897a80ea819b0eb08c01>@@AEAV<lambda_38ce7e780aa69e748d6df282ebc68efe>@@V<lambda_99fb1378e971ab6e7edea83e3a7a83a2>@@@?$__crt_seh_guarded_call@H@@QEAAH$$QEAV<lambda_a37b2b86f63e897a80ea819b0eb08c01>@@AEAV<lambda_38ce7e780aa69e748d6df282ebc68efe>@@$$QEAV<lambda_99fb1378e971ab6e7edea83e3a7a83a2>@@@Z@4HA 000000014005b800     libucrt:commit.obj
 0002:0000e800       $unwind$__acrt_initialize_lowio$fin$0 000000014005b800     libucrt:ioinit.obj
 0002:0000e800       $unwind$__acrt_lowio_ensure_fh_exists$fin$0 000000014005b800     libucrt:osfinfo.obj
 0002:0000e800       $unwind$_alloc_osfhnd$fin$0 000000014005b800     libucrt:osfinfo.obj
 0002:0000e800       $unwind$_read$fin$0        000000014005b800     libucrt:read.obj
 0002:0000e800       $unwind$?fin$0@?0???$?RV<lambda_efdfa57d1f175319df784efa44bb7b81>@@AEAV<lambda_5f0a4c1567f8adc6734073e5d1e1b35c>@@V<lambda_2e8a7d3640ea6ccb4c2413664c2db6fd>@@@?$__crt_seh_guarded_call@X@@QEAAX$$QEAV<lambda_efdfa57d1f175319df784efa44bb7b81>@@AEAV<lambda_5f0a4c1567f8adc6734073e5d1e1b35c>@@$$QEAV<lambda_2e8a7d3640ea6ccb4c2413664c2db6fd>@@@Z@4HA 000000014005b800     libucrt:mbctype.obj
 0002:0000e800       $unwind$?fin$0@?0??update_thread_multibyte_data_internal@@YAPEAU__crt_multibyte_data@@QEAU__acrt_ptd@@QEAPEAU1@@Z@4HA 000000014005b800     libucrt:mbctype.obj
 0002:0000e800       $unwind$?fin$0@?0???$?RV<lambda_450d765d439847d4c735a33c368b5fc0>@@AEAV<lambda_44731a7d0e6d81c3e6aa82d741081786>@@V<lambda_601a2a7da3b7a96e9554ac7215c4b07c>@@@?$__crt_seh_guarded_call@P6AXH@Z@@QEAAP6AXH@Z$$QEAV<lambda_450d765d439847d4c735a33c368b5fc0>@@AEAV<lambda_44731a7d0e6d81c3e6aa82d741081786>@@$$QEAV<lambda_601a2a7da3b7a96e9554ac7215c4b07c>@@@Z@4HA 000000014005b800     libucrt:signal.obj
 0002:0000e800       $unwind$raise$fin$0        000000014005b800     libucrt:signal.obj
 0002:0000e800       $unwind$?filt$0@?0???R<lambda_6e4b09c48022b2350581041d5f6b0c4c>@@QEBA@XZ@4HA 000000014005b800     libucrt:exit.obj
 0002:0000e800       $unwind$?fin$0@?0???$?RV<lambda_d80eeec6fff315bfe5c115232f3240e3>@@AEAV<lambda_6e4b09c48022b2350581041d5f6b0c4c>@@V<lambda_2358e3775559c9db80273638284d5e45>@@@?$__crt_seh_guarded_call@X@@QEAAX$$QEAV<lambda_d80eeec6fff315bfe5c115232f3240e3>@@AEAV<lambda_6e4b09c48022b2350581041d5f6b0c4c>@@$$QEAV<lambda_2358e3775559c9db80273638284d5e45>@@@Z@4HA 000000014005b800     libucrt:exit.obj
 0002:0000e800       $unwind$?fin$0@?0???$?RV<lambda_638799b9deba96c50f710eeac98168cd>@@AEAV<lambda_22ebabd17bc4fa466a2aca6d8deb888d>@@V<lambda_a6f7d7db0129f75315ebf26d50c089f1>@@@?$__crt_seh_guarded_call@H@@QEAAH$$QEAV<lambda_638799b9deba96c50f710eeac98168cd>@@AEAV<lambda_22ebabd17bc4fa466a2aca6d8deb888d>@@$$QEAV<lambda_a6f7d7db0129f75315ebf26d50c089f1>@@@Z@4HA 000000014005b800     libucrt:onexit.obj
 0002:0000e800       $unwind$?fin$0@?0???$?RV<lambda_7777bce6b2f8c936911f934f8298dc43>@@AEAV<lambda_f03950bc5685219e0bcd2087efbe011e>@@V<lambda_3883c3dff614d5e0c5f61bb1ac94921c>@@@?$__crt_seh_guarded_call@H@@QEAAH$$QEAV<lambda_7777bce6b2f8c936911f934f8298dc43>@@AEAV<lambda_f03950bc5685219e0bcd2087efbe011e>@@$$QEAV<lambda_3883c3dff614d5e0c5f61bb1ac94921c>@@@Z@4HA 000000014005b800     libucrt:onexit.obj
 0002:0000e800       $unwind$_fcloseall$fin$0   000000014005b800     libucrt:closeall.obj
 0002:0000e800       $unwind$?fin$0@?0???$?RV<lambda_842d9ff0dc9ef11c61343bbaebe7f885>@@AEAV<lambda_c5860995281e5c4ce005b3de8f5874ee>@@V<lambda_d90129c13df834fdcbf8d2b88dafcf2d>@@@?$__crt_seh_guarded_call@X@@QEAAX$$QEAV<lambda_842d9ff0dc9ef11c61343bbaebe7f885>@@AEAV<lambda_c5860995281e5c4ce005b3de8f5874ee>@@$$QEAV<lambda_d90129c13df834fdcbf8d2b88dafcf2d>@@@Z@4HA 000000014005b800     libucrt:fflush.obj
 0002:0000e800       $unwind$?fin$0@?0???$?RV<lambda_886d6c58226a84441f68b9f2b8217b83>@@AEAV<lambda_ab61a845afdef5b7c387490eaf3616ee>@@V<lambda_f7f22ab5edc0698d5f6905b0d3f44752>@@@?$__crt_seh_guarded_call@X@@QEAAX$$QEAV<lambda_886d6c58226a84441f68b9f2b8217b83>@@AEAV<lambda_ab61a845afdef5b7c387490eaf3616ee>@@$$QEAV<lambda_f7f22ab5edc0698d5f6905b0d3f44752>@@@Z@4HA 000000014005b800     libucrt:fflush.obj
 0002:0000e800       $unwind$?fin$0@?0???$?RV<lambda_c376a267cfb53b6959b3b692ec76b120>@@AEAV<lambda_9a32fed5bf61b6b509b2d3f6003082a1>@@V<lambda_572fbb9fa0ab338edf41edfd4b5fcc8d>@@@?$__crt_seh_guarded_call@H@@QEAAH$$QEAV<lambda_c376a267cfb53b6959b3b692ec76b120>@@AEAV<lambda_9a32fed5bf61b6b509b2d3f6003082a1>@@$$QEAV<lambda_572fbb9fa0ab338edf41edfd4b5fcc8d>@@@Z@4HA 000000014005b800     libucrt:fflush.obj
 0002:0000e800       $unwind$fgetc$fin$0        000000014005b800     libucrt:fgetc.obj
 0002:0000e800       $unwind$?fin$0@?0???$common_fsopen@D@@YAPEAU_iobuf@@QEBD0H@Z@4HA 000000014005b800     libucrt:fopen.obj
 0002:0000e800       $unwind$?fin$0@?0???$?RV<lambda_613eff765f5c257adf68e381dfe80f05>@@AEAV<lambda_ebf663be9fcd9e0b17ed57bdb95b0759>@@V<lambda_872abebd861b7db59b42e49ea65623b0>@@@?$__crt_seh_guarded_call@H@@QEAAH$$QEAV<lambda_613eff765f5c257adf68e381dfe80f05>@@AEAV<lambda_ebf663be9fcd9e0b17ed57bdb95b0759>@@$$QEAV<lambda_872abebd861b7db59b42e49ea65623b0>@@@Z@4HA 000000014005b800     libucrt:output.obj
 0002:0000e800       $unwind$?fin$0@?0???$?RV<lambda_d854c62834386a3b23916ad6dae2782d>@@AEAV<lambda_303760bc4008a2b3ec4768a30b06a80c>@@V<lambda_4780a7ea4f8cbd2590aec34bd14e2bbf>@@@?$__crt_seh_guarded_call@H@@QEAAH$$QEAV<lambda_d854c62834386a3b23916ad6dae2782d>@@AEAV<lambda_303760bc4008a2b3ec4768a30b06a80c>@@$$QEAV<lambda_4780a7ea4f8cbd2590aec34bd14e2bbf>@@@Z@4HA 000000014005b800     libucrt:output.obj
 0002:0000e800       $unwind$?fin$0@?0???$?RV<lambda_9291da6fb19fed9e7668d36b7e9903ee>@@AEAV<lambda_e8d85a8178367c0d1135ba66de989cf6>@@V<lambda_2aa1c5fac2b3ecd63b0b04056e47917d>@@@?$__crt_seh_guarded_call@H@@QEAAH$$QEAV<lambda_9291da6fb19fed9e7668d36b7e9903ee>@@AEAV<lambda_e8d85a8178367c0d1135ba66de989cf6>@@$$QEAV<lambda_2aa1c5fac2b3ecd63b0b04056e47917d>@@@Z@4HA 000000014005b800     libucrt:setvbuf.obj
 0002:0000e800       $unwind$?fin$0@?0??__acrt_stdio_allocate_stream@@YA?AV__crt_stdio_stream@@XZ@4HA 000000014005b800     libucrt:stream.obj
 0002:0000e800       $unwind$ungetc$fin$0       000000014005b800     libucrt:ungetc.obj
 0002:0000e800       $unwind$_ctrlfp$filt$0     000000014005b800     libucrt:fpctrl.obj
 0002:0000e800       $unwind$common_control87$filt$0 000000014005b800     libucrt:ieee.obj
 0002:0000e808       $unwind$__scrt_is_nonwritable_in_current_image 000000014005b808     LIBCMT:utility.obj
 0002:0000e828       $unwind$__scrt_is_nonwritable_in_current_image$filt$0 000000014005b828     LIBCMT:utility.obj
 0002:0000e830       $unwind$__security_init_cookie 000000014005b830     LIBCMT:gs_support.obj
 0002:0000e83c       $unwind$__scrt_get_show_window_mode 000000014005b83c     LIBCMT:utility_desktop.obj
 0002:0000e844       $unwind$__scrt_fastfail    000000014005b844     LIBCMT:utility_desktop.obj
 0002:0000e854       $unwind$_RTC_Initialize    000000014005b854     LIBCMT:initsect.obj
 0002:0000e854       $unwind$_RTC_Terminate     000000014005b854     LIBCMT:initsect.obj
 0002:0000e854       $unwind$__scrt_unhandled_exception_filter 000000014005b854     LIBCMT:utility_desktop.obj
 0002:0000e854       $unwind$__C_specific_handler_noexcept 000000014005b854     libvcruntime:chandler_noexcept.obj
 0002:0000e854       $unwind$__FrameUnwindFilter 000000014005b854     libvcruntime:ehhelpers.obj
 0002:0000e854       $unwind$?SetUnwindTryBlock@__FrameHandler3@@SAXPEA_KPEAU_xDISPATCHER_CONTEXT@@PEBU_s_FuncInfo@@H@Z 000000014005b854     libvcruntime:ehstate.obj
 0002:0000e854       $unwind$??_Gbad_exception@std@@UEAAPEAXI@Z 000000014005b854     libvcruntime:frame.obj
 0002:0000e854       $unwind$??_Gexception@std@@UEAAPEAXI@Z 000000014005b854     libvcruntime:frame.obj
 0002:0000e854       $unwind$?ExFilterRethrow@@YAHPEAU_EXCEPTION_POINTERS@@PEAUEHExceptionRecord@@PEAH@Z 000000014005b854     libvcruntime:frame.obj
 0002:0000e854       $unwind$_FindAndUnlinkFrame 000000014005b854     libvcruntime:risctrnsctrl.obj
 0002:0000e854       $unwind$__vcrt_FlsSetValue 000000014005b854     libvcruntime:winapi_downlevel.obj
 0002:0000e854       $unwind$??$common_initialize_environment_nolock@D@@YAHXZ 000000014005b854     libucrt:environment_initialization.obj
 0002:0000e854       $unwind$isspace            000000014005b854     libucrt:_ctype.obj
 0002:0000e854       $unwind$_realloc_base      000000014005b854     libucrt:realloc_base.obj
 0002:0000e854       $unwind$?replace_current_thread_locale_nolock@@YAXQEAU__acrt_ptd@@QEAU__crt_locale_data@@@Z 000000014005b854     libucrt:per_thread_data.obj
 0002:0000e854       $unwind$__acrt_execute_uninitializers 000000014005b854     libucrt:shared_initialization.obj
 0002:0000e854       $unwind$__acrt_LocaleNameToLCID 000000014005b854     libucrt:winapi_thunks.obj
 0002:0000e854       $unwind$__acrt_can_show_message_box 000000014005b854     libucrt:winapi_thunks.obj
 0002:0000e854       $unwind$?free_crt_array_internal@@YAXQEAPEBX_K@Z 000000014005b854     libucrt:inittime.obj
 0002:0000e854       $unwind$_updatetlocinfoEx_nolock 000000014005b854     libucrt:locale_refcounting.obj
 0002:0000e854       $unwind$__acrt_uninitialize_lowio 000000014005b854     libucrt:ioinit.obj
 0002:0000e854       $unwind$?setSBCS@@YAXPEAU__crt_multibyte_data@@@Z 000000014005b854     libucrt:mbctype.obj
 0002:0000e854       $unwind$_get_narrow_winmain_command_line 000000014005b854     libucrt:argv_winmain.obj
 0002:0000e854       $unwind$_initterm_e        000000014005b854     libucrt:initterm.obj
 0002:0000e854       $unwind$__acrt_stdio_allocate_buffer_nolock 000000014005b854     libucrt:_getbuf.obj
 0002:0000e854       $unwind$__acrt_stdio_begin_temporary_buffering_nolock 000000014005b854     libucrt:_sftbuf.obj
 0002:0000e854       $unwind$fopen_s            000000014005b854     libucrt:fopen.obj
 0002:0000e854       $unwind$?common_fseek_binary_mode_read_only_fast_track_nolock@@YA_NV__crt_stdio_stream@@_JH@Z 000000014005b854     libucrt:fseek.obj
 0002:0000e854       $unwind$?process_conversion_specifier@?$input_processor@DV?$string_input_adapter@D@__crt_stdio_input@@@__crt_stdio_input@@AEAA_NXZ 000000014005b854     libucrt:input.obj
 0002:0000e854       $unwind$?process_floating_point_specifier@?$input_processor@DV?$string_input_adapter@D@__crt_stdio_input@@@__crt_stdio_input@@AEAA_NXZ 000000014005b854     libucrt:input.obj
 0002:0000e854       $unwind$?process_literal_character_tchar@?$input_processor@DV?$string_input_adapter@D@__crt_stdio_input@@@__crt_stdio_input@@AEAA_ND@Z 000000014005b854     libucrt:input.obj
 0002:0000e854       $unwind$?process_state@?$input_processor@DV?$string_input_adapter@D@__crt_stdio_input@@@__crt_stdio_input@@AEAA_NXZ 000000014005b854     libucrt:input.obj
 0002:0000e854       $unwind$?write_integer@?$input_processor@DV?$string_input_adapter@D@__crt_stdio_input@@@__crt_stdio_input@@AEAA_N_K@Z 000000014005b854     libucrt:input.obj
 0002:0000e854       $unwind$_ungetc_nolock     000000014005b854     libucrt:ungetc.obj
 0002:0000e854       $unwind$wcsncat_s          000000014005b854     libucrt:wcsncat_s.obj
 0002:0000e860       $unwind$__isa_available_init 000000014005b860     LIBCMT:cpu_disp.obj
 0002:0000e870       $xdatasym                  000000014005b870     LIBCMT:guard_dispatch.obj
 0002:0000e878       $xdatasym                  000000014005b878     LIBCMT:guard_xfg_dispatch.obj
 0002:0000e87c       $unwind$__C_specific_handler 000000014005b87c     libvcruntime:riscchandler.obj
 0002:0000e87c       $unwind$?GetRangeOfTrysToCheck@__FrameHandler3@@SA?AU?$pair@Viterator@TryBlockMap@__FrameHandler3@@V123@@std@@AEAVTryBlockMap@1@HPEAU_xDISPATCHER_CONTEXT@@PEBU_s_FuncInfo@@H@Z 000000014005b87c     libvcruntime:risctrnsctrl.obj
 0002:0000e898       $unwind$__DestructExceptionObject 000000014005b898     libvcruntime:ehhelpers.obj
 0002:0000e8b8       $unwind$__DestructExceptionObject$filt$0 000000014005b8b8     libvcruntime:ehhelpers.obj
 0002:0000e8b8       $unwind$?fin$1@?0??CxxCallCatchBlock@__FrameHandler3@@SAPEAXPEAU_EXCEPTION_RECORD@@@Z@4HA 000000014005b8b8     libvcruntime:frame.obj
 0002:0000e8c8       $xdatasym                  000000014005b8c8     libvcruntime:memset.obj
 0002:0000e8d8       $xdatasym                  000000014005b8d8     libvcruntime:notify.obj
 0002:0000e8e4       $unwind$__vcrt_getptd_noexit 000000014005b8e4     libvcruntime:per_thread_data.obj
 0002:0000e8e4       $unwind$?FrameUnwindToEmptyState@__FrameHandler3@@SAXPEA_KPEAU_xDISPATCHER_CONTEXT@@PEBU_s_FuncInfo@@@Z 000000014005b8e4     libvcruntime:risctrnsctrl.obj
 0002:0000e8e4       $unwind$__vcrt_InitializeCriticalSectionEx 000000014005b8e4     libvcruntime:winapi_downlevel.obj
 0002:0000e8e4       $unwind$memcpy_s           000000014005b8e4     libucrt:cfout.obj
 0002:0000e8e4       $unwind$?update_locale_slow@__crt_cached_ptd_host@@AEAAXXZ 000000014005b8e4     libucrt:strtox.obj
 0002:0000e8e4       $unwind$__acrt_getptd      000000014005b8e4     libucrt:per_thread_data.obj
 0002:0000e8e4       $unwind$__acrt_getptd_noexit 000000014005b8e4     libucrt:per_thread_data.obj
 0002:0000e8e4       $unwind$__acrt_getptd_noexit_explicit 000000014005b8e4     libucrt:per_thread_data.obj
 0002:0000e8e4       $unwind$__acrt_execute_initializers 000000014005b8e4     libucrt:shared_initialization.obj
 0002:0000e8e4       $unwind$__acrt_InitializeCriticalSectionEx 000000014005b8e4     libucrt:winapi_thunks.obj
 0002:0000e8e4       $unwind$_close_nolock_internal 000000014005b8e4     libucrt:close.obj
 0002:0000e8e4       $unwind$?value@?$dual_state_global@P6AXPEB_W00I_K@Z@__crt_state_management@@QEAAAEAP6AXPEB_W00I_K@ZAEAV__crt_cached_ptd_host@@@Z 000000014005b8e4     libucrt:invalid_parameter.obj
 0002:0000e8e4       $unwind$__acrt_stdio_flush_and_write_narrow_nolock 000000014005b8e4     libucrt:_flsbuf.obj
 0002:0000e8e4       $unwind$__acrt_stdio_flush_and_write_wide_nolock 000000014005b8e4     libucrt:_flsbuf.obj
 0002:0000e8e4       $unwind$??$skip_whitespace@Vstring_input_adapter@__crt_stdio_input@@D@__crt_stdio_input@@YAHAEAV?$string_input_adapter@D@0@QEAU__crt_locale_pointers@@@Z 000000014005b8e4     libucrt:input.obj
 0002:0000e8e4       $unwind$??0_LocaleUpdate@@QEAA@QEAU__crt_locale_pointers@@@Z 000000014005b8e4     libucrt:input.obj
 0002:0000e8e4       $unwind$?advance@?$format_string_parser@D@__crt_stdio_input@@QEAA_NXZ 000000014005b8e4     libucrt:input.obj
 0002:0000e8e4       $unwind$?process@?$input_processor@DV?$string_input_adapter@D@__crt_stdio_input@@@__crt_stdio_input@@QEAAHXZ 000000014005b8e4     libucrt:input.obj
 0002:0000e8e4       $unwind$?process_string_specifier@?$input_processor@DV?$string_input_adapter@D@__crt_stdio_input@@@__crt_stdio_input@@AEAA_NW4conversion_mode@2@@Z 000000014005b8e4     libucrt:input.obj
 0002:0000e8e4       $unwind$memcpy_s           000000014005b8e4     libucrt:input.obj
 0002:0000e8e4       $unwind$??$__acrt_stdio_parse_mode@D@@YA?AU__acrt_stdio_stream_mode@@QEBD@Z 000000014005b8e4     libucrt:openfile.obj
 0002:0000e8e4       $unwind$?type_case_Z@?$output_processor@_WV?$stream_output_adapter@_W@__crt_stdio_output@@V?$standard_base@_WV?$stream_output_adapter@_W@__crt_stdio_output@@@2@@__crt_stdio_output@@AEAA_NXZ 000000014005b8e4     libucrt:output.obj
 0002:0000e8e4       $unwind$?type_case_Z@?$output_processor@_WV?$string_output_adapter@_W@__crt_stdio_output@@V?$standard_base@_WV?$string_output_adapter@_W@__crt_stdio_output@@@2@@__crt_stdio_output@@AEAA_NXZ 000000014005b8e4     libucrt:output.obj
 0002:0000e8e4       $unwind$?type_case_s@?$output_processor@_WV?$stream_output_adapter@_W@__crt_stdio_output@@V?$standard_base@_WV?$stream_output_adapter@_W@__crt_stdio_output@@@2@@__crt_stdio_output@@AEAA_NXZ 000000014005b8e4     libucrt:output.obj
 0002:0000e8e4       $unwind$?type_case_s@?$output_processor@_WV?$string_output_adapter@_W@__crt_stdio_output@@V?$standard_base@_WV?$string_output_adapter@_W@__crt_stdio_output@@@2@@__crt_stdio_output@@AEAA_NXZ 000000014005b8e4     libucrt:output.obj
 0002:0000e8e4       $unwind$?type_case_s_compute_narrow_string_length@?$output_processor@_WV?$stream_output_adapter@_W@__crt_stdio_output@@V?$standard_base@_WV?$stream_output_adapter@_W@__crt_stdio_output@@@2@@__crt_stdio_output@@AEAAHH_W@Z 000000014005b8e4     libucrt:output.obj
 0002:0000e8e4       $unwind$?type_case_s_compute_narrow_string_length@?$output_processor@_WV?$string_output_adapter@_W@__crt_stdio_output@@V?$standard_base@_WV?$string_output_adapter@_W@__crt_stdio_output@@@2@@__crt_stdio_output@@AEAAHH_W@Z 000000014005b8e4     libucrt:output.obj
 0002:0000e8e4       $unwind$??R<lambda_e8d85a8178367c0d1135ba66de989cf6>@@QEBAHXZ 000000014005b8e4     libucrt:setvbuf.obj
 0002:0000e8e4       $unwind$strncpy_s          000000014005b8e4     libucrt:strncpy_s.obj
 0002:0000e8e4       $unwind$_exception_enabled 000000014005b8e4     libucrt:libm_error.obj
 0002:0000e8f4       $unwind$?try_get_function@@YAPEAXW4function_id@?A0x14174aea@@QEBDQEBW4module_id@2@2@Z 000000014005b8f4     libvcruntime:winapi_downlevel.obj
 0002:0000e8f4       $unwind$?try_get_function@@YAPEAXW4function_id@?A0x391cf84c@@QEBDQEBW4module_id@2@2@Z 000000014005b8f4     libucrt:winapi_thunks.obj
 0002:0000e910       $unwind$?GetHandlerSearchState@__FrameHandler3@@SAHPEA_KPEAU_xDISPATCHER_CONTEXT@@PEBU_s_FuncInfo@@@Z 000000014005b910     libvcruntime:frame.obj
 0002:0000e910       $unwind$?Is_bad_exception_allowed@@YAEPEBU_s_ESTypeList@@@Z 000000014005b910     libvcruntime:frame.obj
 0002:0000e910       $unwind$?CatchTryBlock@__FrameHandler3@@SAPEBU_s_TryBlockMapEntry@@PEBU_s_FuncInfo@@H@Z 000000014005b910     libvcruntime:risctrnsctrl.obj
 0002:0000e910       $unwind$_ischartype_l      000000014005b910     libucrt:strtox.obj
 0002:0000e910       $unwind$_recalloc_base     000000014005b910     libucrt:recalloc.obj
 0002:0000e910       $unwind$__acrt_free_locale 000000014005b910     libucrt:locale_refcounting.obj
 0002:0000e910       $unwind$__acrt_lowio_create_handle_array 000000014005b910     libucrt:osfinfo.obj
 0002:0000e910       $unwind$__acrt_show_wide_message_box 000000014005b910     libucrt:crtmbox.obj
 0002:0000e910       $unwind$_seh_filter_exe    000000014005b910     libucrt:exception_filter.obj
 0002:0000e910       $unwind$_wassert           000000014005b910     libucrt:assert.obj
 0002:0000e910       $unwind$__acrt_stdio_flush_nolock 000000014005b910     libucrt:fflush.obj
 0002:0000e910       $unwind$?common_fseek_nolock@@YAHV__crt_stdio_stream@@_JHAEAV__crt_cached_ptd_host@@@Z 000000014005b910     libucrt:fseek.obj
 0002:0000e910       $unwind$??$ensure_buffer_is_big_enough@D@formatting_buffer@__crt_stdio_output@@QEAA_N_KAEAV__crt_cached_ptd_host@@@Z 000000014005b910     libucrt:output.obj
 0002:0000e910       $unwind$??$ensure_buffer_is_big_enough@_W@formatting_buffer@__crt_stdio_output@@QEAA_N_KAEAV__crt_cached_ptd_host@@@Z 000000014005b910     libucrt:output.obj
 0002:0000e924       $unwind$?GetEstablisherFrame@__FrameHandler3@@SAPEA_KPEA_KPEAU_xDISPATCHER_CONTEXT@@PEBU_s_FuncInfo@@0@Z 000000014005b924     libvcruntime:risctrnsctrl.obj
 0002:0000e93c       $unwind$?UnwindNestedFrames@__FrameHandler3@@SAXPEA_KPEAUEHExceptionRecord@@PEAU_CONTEXT@@0PEAXPEBU_s_FuncInfo@@HHPEBU_s_HandlerType@@PEAU_xDISPATCHER_CONTEXT@@E@Z 000000014005b93c     libvcruntime:risctrnsctrl.obj
 0002:0000e950       $unwind$__CxxFrameHandler3 000000014005b950     libvcruntime:risctrnsctrl.obj
 0002:0000e950       $unwind$?process_integer_specifier@?$input_processor@DV?$string_input_adapter@D@__crt_stdio_input@@@__crt_stdio_input@@AEAA_NI_N@Z 000000014005b950     libucrt:input.obj
 0002:0000e964       $unwind$??$_CallSETranslator@V__FrameHandler3@@@@YAHPEAUEHExceptionRecord@@PEA_KPEAU_CONTEXT@@PEAU_xDISPATCHER_CONTEXT@@PEBU_s_FuncInfo@@K1H@Z 000000014005b964     libvcruntime:risctrnsctrl.obj
 0002:0000e984       $unwind$?filt$0@?0???$_CallSETranslator@V__FrameHandler3@@@@YAHPEAUEHExceptionRecord@@PEA_KPEAU_CONTEXT@@PEAU_xDISPATCHER_CONTEXT@@PEBU_s_FuncInfo@@K1H@Z@4HA 000000014005b984     libvcruntime:risctrnsctrl.obj
 0002:0000e990       $xdatasym                  000000014005b990     libvcruntime:memcpy.obj
 0002:0000e9a0       $unwind$?FrameUnwindToState@__FrameHandler3@@SAXPEA_KPEAU_xDISPATCHER_CONTEXT@@PEBU_s_FuncInfo@@H@Z 000000014005b9a0     libvcruntime:frame.obj
 0002:0000e9ec       $unwind$?CxxCallCatchBlock@__FrameHandler3@@SAPEAXPEAU_EXCEPTION_RECORD@@@Z 000000014005b9ec     libvcruntime:frame.obj
 0002:0000ea28       $unwind$?IsInExceptionSpec@@YAEPEAUEHExceptionRecord@@PEBU_s_ESTypeList@@@Z 000000014005ba28     libvcruntime:frame.obj
 0002:0000ea44       $unwind$__GSHandlerCheck_EH 000000014005ba44     LIBCMT:gshandlereh.obj
 0002:0000ea44       $unwind$??$TypeMatchHelper@V__FrameHandler3@@@@YAHPEBU_s_HandlerType@@PEBU_s_CatchableType@@PEBU_s_ThrowInfo@@@Z 000000014005ba44     libvcruntime:frame.obj
 0002:0000ea44       $unwind$?initialize_stdio_handles_nolock@@YAXXZ 000000014005ba44     libucrt:ioinit.obj
 0002:0000ea44       $unwind$__acrt_lowio_set_os_handle 000000014005ba44     libucrt:osfinfo.obj
 0002:0000ea44       $unwind$__acrt_initialize_stdio 000000014005ba44     libucrt:_file.obj
 0002:0000ea5c       $unwind$??$BuildCatchObjectHelperInternal@V__FrameHandler3@@@@YAHPEAUEHExceptionRecord@@PEAXPEBU_s_HandlerType@@PEBU_s_CatchableType@@@Z 000000014005ba5c     libvcruntime:frame.obj
 0002:0000ea9c       $unwind$??$BuildCatchObjectInternal@V__FrameHandler3@@@@YAXPEAUEHExceptionRecord@@PEAXPEBU_s_HandlerType@@PEBU_s_CatchableType@@@Z 000000014005ba9c     libvcruntime:frame.obj
 0002:0000eac8       $unwind$??$__InternalCxxFrameHandler@V__FrameHandler3@@@@YA?AW4_EXCEPTION_DISPOSITION@@PEAUEHExceptionRecord@@PEA_KPEAU_CONTEXT@@PEAU_xDISPATCHER_CONTEXT@@PEBU_s_FuncInfo@@H1E@Z 000000014005bac8     libvcruntime:frame.obj
 0002:0000eac8       $unwind$?fp_format_e@@YAHQEBNQEAD_K12H_NIW4__acrt_rounding_mode@@AEAV__crt_cached_ptd_host@@@Z 000000014005bac8     libucrt:cvt.obj
 0002:0000eae0       $unwind$??$FindHandler@V__FrameHandler3@@@@YAXPEAUEHExceptionRecord@@PEA_KPEAU_CONTEXT@@PEAU_xDISPATCHER_CONTEXT@@PEBU_s_FuncInfo@@EH1@Z 000000014005bae0     libvcruntime:frame.obj
 0002:0000eb00       $unwind$??$CatchIt@V__FrameHandler3@@@@YAXPEAUEHExceptionRecord@@PEA_KPEAU_CONTEXT@@PEAU_xDISPATCHER_CONTEXT@@PEBU_s_FuncInfo@@PEBU_s_HandlerType@@PEBU_s_CatchableType@@PEBU_s_TryBlockMapEntry@@H1EE@Z 000000014005bb00     libvcruntime:frame.obj
 0002:0000eb18       $unwind$??$FindHandlerForForeignException@V__FrameHandler3@@@@YAXPEAUEHExceptionRecord@@PEA_KPEAU_CONTEXT@@PEAU_xDISPATCHER_CONTEXT@@PEBU_s_FuncInfo@@HH1@Z 000000014005bb18     libvcruntime:frame.obj
 0002:0000eb38       $xdatasym                  000000014005bb38     libvcruntime:handlers.obj
 0002:0000eb58       $unwind$__std_exception_copy 000000014005bb58     libvcruntime:std_exception.obj
 0002:0000eb58       $unwind$_free_osfhnd       000000014005bb58     libucrt:osfinfo.obj
 0002:0000eb58       $unwind$__acrt_stdio_refill_and_read_narrow_nolock 000000014005bb58     libucrt:_filbuf.obj
 0002:0000eb6c       $unwind$_CxxThrowException 000000014005bb6c     libvcruntime:throw.obj
 0002:0000eb80       $xdatasym                  000000014005bb80     libucrt:strncmp.obj
 0002:0000eb84       $unwind$strtol             000000014005bb84     libucrt:strtox.obj
 0002:0000eb84       $unwind$strtoull           000000014005bb84     libucrt:strtox.obj
 0002:0000eb94       $unwind$?get_raw_ptd@__crt_cached_ptd_host@@QEAAPEAU__acrt_ptd@@XZ 000000014005bb94     libucrt:strtox.obj
 0002:0000eb9c       $chain$0$?get_raw_ptd@__crt_cached_ptd_host@@QEAAPEAU__acrt_ptd@@XZ 000000014005bb9c     libucrt:strtox.obj
 0002:0000ebb0       $chain$1$?get_raw_ptd@__crt_cached_ptd_host@@QEAAPEAU__acrt_ptd@@XZ 000000014005bbb0     libucrt:strtox.obj
 0002:0000ebc0       $unwind$??$parse_integer@KV?$c_string_character_source@D@__crt_strtox@@$00@__crt_strtox@@YAKAEAV__crt_cached_ptd_host@@V?$c_string_character_source@D@0@H_N@Z 000000014005bbc0     libucrt:strtox.obj
 0002:0000ebc0       $unwind$??$parse_integer@_KV?$c_string_character_source@D@__crt_strtox@@$00@__crt_strtox@@YA_KAEAV__crt_cached_ptd_host@@V?$c_string_character_source@D@0@H_N@Z 000000014005bbc0     libucrt:strtox.obj
 0002:0000ebc0       $unwind$??$copy_and_add_argument_to_buffer@D@@YAHQEBD0_KAEAV?$argument_list@D@?A0x5f5c8891@@@Z 000000014005bbc0     libucrt:argv_wildcards.obj
 0002:0000ebc0       $unwind$??$parse_integer@_KV?$input_adapter_character_source@V?$string_input_adapter@D@__crt_stdio_input@@@__crt_strtox@@$00@__crt_strtox@@YA_KAEAV__crt_cached_ptd_host@@V?$input_adapter_character_source@V?$string_input_adapter@D@__crt_stdio_input@@@0@H_N@Z 000000014005bbc0     libucrt:input.obj
 0002:0000ebdc       $unwind$ldexp              000000014005bbdc     libucrt:ldexp.obj
 0002:0000ebf0       $unwind$??$common_fsopen@D@@YAPEAU_iobuf@@QEBD0H@Z 000000014005bbf0     libucrt:fopen.obj
 0002:0000ec18       $unwind$_mbtowc_l          000000014005bc18     libucrt:mbtowc.obj
 0002:0000ec18       $unwind$_chsize_nolock     000000014005bc18     libucrt:chsize.obj
 0002:0000ec18       $unwind$_close_nolock      000000014005bc18     libucrt:close.obj
 0002:0000ec18       $unwind$_lseeki64          000000014005bc18     libucrt:lseek.obj
 0002:0000ec18       $unwind$_lseeki64_nolock   000000014005bc18     libucrt:lseek.obj
 0002:0000ec18       $unwind$_write             000000014005bc18     libucrt:write.obj
 0002:0000ec18       $unwind$fclose             000000014005bc18     libucrt:fclose.obj
 0002:0000ec18       $unwind$_fflush_nolock     000000014005bc18     libucrt:fflush.obj
 0002:0000ec18       $unwind$fseek              000000014005bc18     libucrt:fseek.obj
 0002:0000ec18       $unwind$ftell              000000014005bc18     libucrt:ftell.obj
 0002:0000ec28       $unwind$?_fclose_nolock_internal@@YAHQEAU_iobuf@@AEAV__crt_cached_ptd_host@@@Z 000000014005bc28     libucrt:fclose.obj
 0002:0000ec28       $unwind$??$common_ftell_nolock@_J@@YA_JV__crt_stdio_stream@@AEAV__crt_cached_ptd_host@@@Z 000000014005bc28     libucrt:ftell.obj
 0002:0000ec38       $unwind$?_fclose_internal@@YAHQEAU_iobuf@@AEAV__crt_cached_ptd_host@@@Z 000000014005bc38     libucrt:fclose.obj
 0002:0000ec5c       $unwind$?fin$0@?0???$common_lseek@_J@@YA_JH_JHAEAV__crt_cached_ptd_host@@@Z@4HA 000000014005bc5c     libucrt:lseek.obj
 0002:0000ec5c       $unwind$_write_internal$fin$0 000000014005bc5c     libucrt:write.obj
 0002:0000ec5c       $unwind$?fin$0@?0??_fclose_internal@@YAHQEAU_iobuf@@AEAV__crt_cached_ptd_host@@@Z@4HA 000000014005bc5c     libucrt:fclose.obj
 0002:0000ec5c       $unwind$fread_s$fin$0      000000014005bc5c     libucrt:fread.obj
 0002:0000ec5c       $unwind$?fin$0@?0??common_fseek@@YAHV__crt_stdio_stream@@_JHAEAV__crt_cached_ptd_host@@@Z@4HA 000000014005bc5c     libucrt:fseek.obj
 0002:0000ec5c       $unwind$?fin$0@?0???$common_ftell@J@@YAJV__crt_stdio_stream@@AEAV__crt_cached_ptd_host@@@Z@4HA 000000014005bc5c     libucrt:ftell.obj
 0002:0000ec64       $unwind$_itow_s            000000014005bc64     libucrt:xtoa.obj
 0002:0000ec64       $unwind$_sopen_s           000000014005bc64     libucrt:open.obj
 0002:0000ec64       $unwind$_invalid_parameter_noinfo 000000014005bc64     libucrt:invalid_parameter.obj
 0002:0000ec64       $unwind$fflush             000000014005bc64     libucrt:fflush.obj
 0002:0000ec64       $unwind$fread              000000014005bc64     libucrt:fread.obj
 0002:0000ec64       $unwind$??$parse_floating_point_write_result@M@__crt_strtox@@YA?AW4SLD_STATUS@@W4floating_point_parse_result@0@AEBUfloating_point_string@0@QEAM@Z 000000014005bc64     libucrt:input.obj
 0002:0000ec64       $unwind$??$parse_floating_point_write_result@N@__crt_strtox@@YA?AW4SLD_STATUS@@W4floating_point_parse_result@0@AEBUfloating_point_string@0@QEAN@Z 000000014005bc64     libucrt:input.obj
 0002:0000ec64       $unwind$?as_double@floating_point_value@__crt_strtox@@QEBAAEANXZ 000000014005bc64     libucrt:input.obj
 0002:0000ec64       $unwind$?as_float@floating_point_value@__crt_strtox@@QEBAAEAMXZ 000000014005bc64     libucrt:input.obj
 0002:0000ec64       $unwind$?state_case_size@?$output_processor@DV?$stream_output_adapter@D@__crt_stdio_output@@V?$standard_base@DV?$stream_output_adapter@D@__crt_stdio_output@@@2@@__crt_stdio_output@@AEAA_NXZ 000000014005bc64     libucrt:output.obj
 0002:0000ec64       $unwind$?state_case_size@?$output_processor@DV?$string_output_adapter@D@__crt_stdio_output@@V?$format_validation_base@DV?$string_output_adapter@D@__crt_stdio_output@@@2@@__crt_stdio_output@@AEAA_NXZ 000000014005bc64     libucrt:output.obj
 0002:0000ec64       $unwind$?state_case_size@?$output_processor@DV?$string_output_adapter@D@__crt_stdio_output@@V?$standard_base@DV?$string_output_adapter@D@__crt_stdio_output@@@2@@__crt_stdio_output@@AEAA_NXZ 000000014005bc64     libucrt:output.obj
 0002:0000ec64       $unwind$?state_case_size@?$output_processor@_WV?$stream_output_adapter@_W@__crt_stdio_output@@V?$standard_base@_WV?$stream_output_adapter@_W@__crt_stdio_output@@@2@@__crt_stdio_output@@AEAA_NXZ 000000014005bc64     libucrt:output.obj
 0002:0000ec64       $unwind$?state_case_size@?$output_processor@_WV?$string_output_adapter@_W@__crt_stdio_output@@V?$standard_base@_WV?$string_output_adapter@_W@__crt_stdio_output@@@2@@__crt_stdio_output@@AEAA_NXZ 000000014005bc64     libucrt:output.obj
 0002:0000ec64       $unwind$_log10_special     000000014005bc64     libucrt:log_special.obj
 0002:0000ec6c       $unwind$?common_flush_all@@YAH_N@Z 000000014005bc6c     libucrt:fflush.obj
 0002:0000ec74       $unwind$??$?RV<lambda_842d9ff0dc9ef11c61343bbaebe7f885>@@AEAV<lambda_c5860995281e5c4ce005b3de8f5874ee>@@V<lambda_d90129c13df834fdcbf8d2b88dafcf2d>@@@?$__crt_seh_guarded_call@X@@QEAAX$$QEAV<lambda_842d9ff0dc9ef11c61343bbaebe7f885>@@AEAV<lambda_c5860995281e5c4ce005b3de8f5874ee>@@$$QEAV<lambda_d90129c13df834fdcbf8d2b88dafcf2d>@@@Z 000000014005bc74     libucrt:fflush.obj
 0002:0000ec98       $unwind$??$?RV<lambda_886d6c58226a84441f68b9f2b8217b83>@@AEAV<lambda_ab61a845afdef5b7c387490eaf3616ee>@@V<lambda_f7f22ab5edc0698d5f6905b0d3f44752>@@@?$__crt_seh_guarded_call@X@@QEAAX$$QEAV<lambda_886d6c58226a84441f68b9f2b8217b83>@@AEAV<lambda_ab61a845afdef5b7c387490eaf3616ee>@@$$QEAV<lambda_f7f22ab5edc0698d5f6905b0d3f44752>@@@Z 000000014005bc98     libucrt:fflush.obj
 0002:0000ecc0       $unwind$??$?RV<lambda_c376a267cfb53b6959b3b692ec76b120>@@AEAV<lambda_9a32fed5bf61b6b509b2d3f6003082a1>@@V<lambda_572fbb9fa0ab338edf41edfd4b5fcc8d>@@@?$__crt_seh_guarded_call@H@@QEAAH$$QEAV<lambda_c376a267cfb53b6959b3b692ec76b120>@@AEAV<lambda_9a32fed5bf61b6b509b2d3f6003082a1>@@$$QEAV<lambda_572fbb9fa0ab338edf41edfd4b5fcc8d>@@@Z 000000014005bcc0     libucrt:fflush.obj
 0002:0000ece4       $unwind$fgetc              000000014005bce4     libucrt:fgetc.obj
 0002:0000ed18       $unwind$fread_s            000000014005bd18     libucrt:fread.obj
 0002:0000ed48       $unwind$_fread_nolock_s    000000014005bd48     libucrt:fread.obj
 0002:0000ed60       $unwind$?common_fseek@@YAHV__crt_stdio_stream@@_JHAEAV__crt_cached_ptd_host@@@Z 000000014005bd60     libucrt:fseek.obj
 0002:0000ed8c       $unwind$?common_ftell_translated_utf8_nolock@@YA_JV__crt_stdio_stream@@_JAEAV__crt_cached_ptd_host@@@Z 000000014005bd8c     libucrt:ftell.obj
 0002:0000edb0       $unwind$?common_ftell_read_mode_nolock@@YA_JV__crt_stdio_stream@@_J1AEAV__crt_cached_ptd_host@@@Z 000000014005bdb0     libucrt:ftell.obj
 0002:0000edc8       $unwind$??$common_ftell@J@@YAJV__crt_stdio_stream@@AEAV__crt_cached_ptd_host@@@Z 000000014005bdc8     libucrt:ftell.obj
 0002:0000edf0       $unwind$ungetc             000000014005bdf0     libucrt:ungetc.obj
 0002:0000ee14       $unwind$__stdio_common_vfprintf 000000014005be14     libucrt:output.obj
 0002:0000ee14       $unwind$__stdio_common_vfwprintf 000000014005be14     libucrt:output.obj
 0002:0000ee14       $unwind$setvbuf            000000014005be14     libucrt:setvbuf.obj
 0002:0000ee24       $unwind$__stdio_common_vsprintf 000000014005be24     libucrt:output.obj
 0002:0000ee24       $unwind$__stdio_common_vswprintf 000000014005be24     libucrt:output.obj
 0002:0000ee44       $unwind$__stdio_common_vsprintf_s 000000014005be44     libucrt:output.obj
 0002:0000ee58       $unwind$__stdio_common_vsnprintf_s 000000014005be58     libucrt:output.obj
 0002:0000ee74       $unwind$?fp_format_f_internal@@YAHQEAD_KHQEAU_strflt@@_NAEAV__crt_cached_ptd_host@@@Z 000000014005be74     libucrt:cvt.obj
 0002:0000ee74       $unwind$??$common_xtox@K_W@@YAHKQEA_W_KI_N@Z 000000014005be74     libucrt:xtoa.obj
 0002:0000ee74       $unwind$__acrt_DownlevelLocaleNameToLCID 000000014005be74     libucrt:lcidtoname_downlevel.obj
 0002:0000ee74       $unwind$??R<lambda_f03950bc5685219e0bcd2087efbe011e>@@QEBAHXZ 000000014005be74     libucrt:onexit.obj
 0002:0000ee74       $unwind$?write_string_impl@?$output_adapter_common@DV?$stream_output_adapter@D@__crt_stdio_output@@@__crt_stdio_output@@IEBAXQEBDHQEAHAEAV__crt_cached_ptd_host@@@Z 000000014005be74     libucrt:output.obj
 0002:0000ee74       $unwind$?write_string_impl@?$output_adapter_common@_WV?$stream_output_adapter@_W@__crt_stdio_output@@@__crt_stdio_output@@IEBAXQEB_WHQEAHAEAV__crt_cached_ptd_host@@@Z 000000014005be74     libucrt:output.obj
 0002:0000ee8c       $unwind$?process@?$output_processor@DV?$stream_output_adapter@D@__crt_stdio_output@@V?$standard_base@DV?$stream_output_adapter@D@__crt_stdio_output@@@2@@__crt_stdio_output@@QEAAHXZ 000000014005be8c     libucrt:output.obj
 0002:0000ee8c       $unwind$?process@?$output_processor@DV?$string_output_adapter@D@__crt_stdio_output@@V?$format_validation_base@DV?$string_output_adapter@D@__crt_stdio_output@@@2@@__crt_stdio_output@@QEAAHXZ 000000014005be8c     libucrt:output.obj
 0002:0000ee8c       $unwind$?process@?$output_processor@DV?$string_output_adapter@D@__crt_stdio_output@@V?$standard_base@DV?$string_output_adapter@D@__crt_stdio_output@@@2@@__crt_stdio_output@@QEAAHXZ 000000014005be8c     libucrt:output.obj
 0002:0000eea0       $unwind$?parse_int_from_format_string@?$output_processor@DV?$stream_output_adapter@D@__crt_stdio_output@@V?$standard_base@DV?$stream_output_adapter@D@__crt_stdio_output@@@2@@__crt_stdio_output@@AEAA_NQEAH@Z 000000014005bea0     libucrt:output.obj
 0002:0000eea0       $unwind$?parse_int_from_format_string@?$output_processor@DV?$string_output_adapter@D@__crt_stdio_output@@V?$format_validation_base@DV?$string_output_adapter@D@__crt_stdio_output@@@2@@__crt_stdio_output@@AEAA_NQEAH@Z 000000014005bea0     libucrt:output.obj
 0002:0000eea0       $unwind$?parse_int_from_format_string@?$output_processor@DV?$string_output_adapter@D@__crt_stdio_output@@V?$standard_base@DV?$string_output_adapter@D@__crt_stdio_output@@@2@@__crt_stdio_output@@AEAA_NQEAH@Z 000000014005bea0     libucrt:output.obj
 0002:0000eea0       $unwind$?parse_int_from_format_string@?$output_processor@_WV?$stream_output_adapter@_W@__crt_stdio_output@@V?$standard_base@_WV?$stream_output_adapter@_W@__crt_stdio_output@@@2@@__crt_stdio_output@@AEAA_NQEAH@Z 000000014005bea0     libucrt:output.obj
 0002:0000eea0       $unwind$?parse_int_from_format_string@?$output_processor@_WV?$string_output_adapter@_W@__crt_stdio_output@@V?$standard_base@_WV?$string_output_adapter@_W@__crt_stdio_output@@@2@@__crt_stdio_output@@AEAA_NQEAH@Z 000000014005bea0     libucrt:output.obj
 0002:0000eeb4       $unwind$?state_case_type@?$output_processor@DV?$stream_output_adapter@D@__crt_stdio_output@@V?$standard_base@DV?$stream_output_adapter@D@__crt_stdio_output@@@2@@__crt_stdio_output@@AEAA_NXZ 000000014005beb4     libucrt:output.obj
 0002:0000eeb4       $unwind$?state_case_type@?$output_processor@DV?$string_output_adapter@D@__crt_stdio_output@@V?$format_validation_base@DV?$string_output_adapter@D@__crt_stdio_output@@@2@@__crt_stdio_output@@AEAA_NXZ 000000014005beb4     libucrt:output.obj
 0002:0000eeb4       $unwind$?state_case_type@?$output_processor@DV?$string_output_adapter@D@__crt_stdio_output@@V?$standard_base@DV?$string_output_adapter@D@__crt_stdio_output@@@2@@__crt_stdio_output@@AEAA_NXZ 000000014005beb4     libucrt:output.obj
 0002:0000eed8       $unwind$??$common_xtox_s@K_W@@YAHKQEA_W_KI_N@Z 000000014005bed8     libucrt:xtoa.obj
 0002:0000eed8       $unwind$?type_case_c_tchar@?$output_processor@DV?$stream_output_adapter@D@__crt_stdio_output@@V?$standard_base@DV?$stream_output_adapter@D@__crt_stdio_output@@@2@@__crt_stdio_output@@AEAA_ND@Z 000000014005bed8     libucrt:output.obj
 0002:0000eed8       $unwind$?type_case_c_tchar@?$output_processor@DV?$string_output_adapter@D@__crt_stdio_output@@V?$format_validation_base@DV?$string_output_adapter@D@__crt_stdio_output@@@2@@__crt_stdio_output@@AEAA_ND@Z 000000014005bed8     libucrt:output.obj
 0002:0000eed8       $unwind$?type_case_c_tchar@?$output_processor@DV?$string_output_adapter@D@__crt_stdio_output@@V?$standard_base@DV?$string_output_adapter@D@__crt_stdio_output@@@2@@__crt_stdio_output@@AEAA_ND@Z 000000014005bed8     libucrt:output.obj
 0002:0000eee0       $unwind$?type_case_a@?$output_processor@DV?$stream_output_adapter@D@__crt_stdio_output@@V?$standard_base@DV?$stream_output_adapter@D@__crt_stdio_output@@@2@@__crt_stdio_output@@AEAA_NXZ 000000014005bee0     libucrt:output.obj
 0002:0000eee0       $unwind$?type_case_a@?$output_processor@DV?$string_output_adapter@D@__crt_stdio_output@@V?$format_validation_base@DV?$string_output_adapter@D@__crt_stdio_output@@@2@@__crt_stdio_output@@AEAA_NXZ 000000014005bee0     libucrt:output.obj
 0002:0000eee0       $unwind$?type_case_a@?$output_processor@DV?$string_output_adapter@D@__crt_stdio_output@@V?$standard_base@DV?$string_output_adapter@D@__crt_stdio_output@@@2@@__crt_stdio_output@@AEAA_NXZ 000000014005bee0     libucrt:output.obj
 0002:0000eef4       $unwind$?convert_hexadecimal_string_to_floating_type_common@__crt_strtox@@YA?AW4SLD_STATUS@@AEBUfloating_point_string@1@AEBVfloating_point_value@1@@Z 000000014005bef4     libucrt:input.obj
 0002:0000eef4       $unwind$?type_case_n@?$output_processor@DV?$stream_output_adapter@D@__crt_stdio_output@@V?$standard_base@DV?$stream_output_adapter@D@__crt_stdio_output@@@2@@__crt_stdio_output@@AEAA_NXZ 000000014005bef4     libucrt:output.obj
 0002:0000eef4       $unwind$?type_case_n@?$output_processor@DV?$string_output_adapter@D@__crt_stdio_output@@V?$format_validation_base@DV?$string_output_adapter@D@__crt_stdio_output@@@2@@__crt_stdio_output@@AEAA_NXZ 000000014005bef4     libucrt:output.obj
 0002:0000eef4       $unwind$?type_case_n@?$output_processor@DV?$string_output_adapter@D@__crt_stdio_output@@V?$standard_base@DV?$string_output_adapter@D@__crt_stdio_output@@@2@@__crt_stdio_output@@AEAA_NXZ 000000014005bef4     libucrt:output.obj
 0002:0000eef4       $unwind$?type_case_n@?$output_processor@_WV?$stream_output_adapter@_W@__crt_stdio_output@@V?$standard_base@_WV?$stream_output_adapter@_W@__crt_stdio_output@@@2@@__crt_stdio_output@@AEAA_NXZ 000000014005bef4     libucrt:output.obj
 0002:0000eef4       $unwind$?type_case_n@?$output_processor@_WV?$string_output_adapter@_W@__crt_stdio_output@@V?$standard_base@_WV?$string_output_adapter@_W@__crt_stdio_output@@@2@@__crt_stdio_output@@AEAA_NXZ 000000014005bef4     libucrt:output.obj
 0002:0000ef00       $unwind$??R<lambda_303760bc4008a2b3ec4768a30b06a80c>@@QEBAHXZ 000000014005bf00     libucrt:output.obj
 0002:0000ef24       $unwind$??$create_environment@D@@YAQEAPEADQEAD@Z 000000014005bf24     libucrt:environment_initialization.obj
 0002:0000ef24       $unwind$_mbtowc_internal   000000014005bf24     libucrt:mbtowc.obj
 0002:0000ef24       $unwind$??$__acrt_convert_wcs_mbs_cp@D_WV<lambda_7c9dea7b4ca7285d2cdb541a38da6275>@@U__crt_win32_buffer_internal_dynamic_resizing@@@@YAHQEBDAEAV?$__crt_win32_buffer@_WU__crt_win32_buffer_internal_dynamic_resizing@@@@AEBV<lambda_7c9dea7b4ca7285d2cdb541a38da6275>@@I@Z 000000014005bf24     libucrt:argv_wildcards.obj
 0002:0000ef24       $unwind$?process@?$output_processor@_WV?$stream_output_adapter@_W@__crt_stdio_output@@V?$standard_base@_WV?$stream_output_adapter@_W@__crt_stdio_output@@@2@@__crt_stdio_output@@QEAAHXZ 000000014005bf24     libucrt:output.obj
 0002:0000ef24       $unwind$?process@?$output_processor@_WV?$string_output_adapter@_W@__crt_stdio_output@@V?$standard_base@_WV?$string_output_adapter@_W@__crt_stdio_output@@@2@@__crt_stdio_output@@QEAAHXZ 000000014005bf24     libucrt:output.obj
 0002:0000ef3c       $unwind$?state_case_type@?$output_processor@_WV?$stream_output_adapter@_W@__crt_stdio_output@@V?$standard_base@_WV?$stream_output_adapter@_W@__crt_stdio_output@@@2@@__crt_stdio_output@@AEAA_NXZ 000000014005bf3c     libucrt:output.obj
 0002:0000ef3c       $unwind$?state_case_type@?$output_processor@_WV?$string_output_adapter@_W@__crt_stdio_output@@V?$standard_base@_WV?$string_output_adapter@_W@__crt_stdio_output@@@2@@__crt_stdio_output@@AEAA_NXZ 000000014005bf3c     libucrt:output.obj
 0002:0000ef60       $unwind$?get_raw_ptd_noexit@__crt_cached_ptd_host@@QEAAPEAU__acrt_ptd@@XZ 000000014005bf60     libucrt:invalid_parameter.obj
 0002:0000ef60       $unwind$?type_case_c_tchar@?$output_processor@_WV?$stream_output_adapter@_W@__crt_stdio_output@@V?$standard_base@_WV?$stream_output_adapter@_W@__crt_stdio_output@@@2@@__crt_stdio_output@@AEAA_N_W@Z 000000014005bf60     libucrt:output.obj
 0002:0000ef60       $unwind$?type_case_c_tchar@?$output_processor@_WV?$string_output_adapter@_W@__crt_stdio_output@@V?$standard_base@_WV?$string_output_adapter@_W@__crt_stdio_output@@@2@@__crt_stdio_output@@AEAA_N_W@Z 000000014005bf60     libucrt:output.obj
 0002:0000ef70       $unwind$?type_case_a@?$output_processor@_WV?$stream_output_adapter@_W@__crt_stdio_output@@V?$standard_base@_WV?$stream_output_adapter@_W@__crt_stdio_output@@@2@@__crt_stdio_output@@AEAA_NXZ 000000014005bf70     libucrt:output.obj
 0002:0000ef70       $unwind$?type_case_a@?$output_processor@_WV?$string_output_adapter@_W@__crt_stdio_output@@V?$standard_base@_WV?$string_output_adapter@_W@__crt_stdio_output@@@2@@__crt_stdio_output@@AEAA_NXZ 000000014005bf70     libucrt:output.obj
 0002:0000ef84       $unwind$??R<lambda_ebf663be9fcd9e0b17ed57bdb95b0759>@@QEBAHXZ 000000014005bf84     libucrt:output.obj
 0002:0000efa8       $unwind$?write_string@?$string_output_adapter@D@__crt_stdio_output@@QEBAXQEBDHQEAHAEAV__crt_cached_ptd_host@@@Z 000000014005bfa8     libucrt:output.obj
 0002:0000efc0       $unwind$?write_string@?$string_output_adapter@_W@__crt_stdio_output@@QEBAXQEB_WHQEAHAEAV__crt_cached_ptd_host@@@Z 000000014005bfc0     libucrt:output.obj
 0002:0000efd8       $unwind$??$common_vsprintf@Vformat_validation_base@__crt_stdio_output@@D@@YAH_KQEAD0QEBDAEAV__crt_cached_ptd_host@@1@Z 000000014005bfd8     libucrt:output.obj
 0002:0000eff8       $unwind$__acrt_MessageBoxW 000000014005bff8     libucrt:winapi_thunks.obj
 0002:0000eff8       $unwind$??$common_lseek_nolock@_J@@YA_JH_JHAEAV__crt_cached_ptd_host@@@Z 000000014005bff8     libucrt:lseek.obj
 0002:0000eff8       $unwind$_invalid_parameter_internal 000000014005bff8     libucrt:invalid_parameter.obj
 0002:0000eff8       $unwind$??$type_case_integer@$07@?$output_processor@DV?$stream_output_adapter@D@__crt_stdio_output@@V?$standard_base@DV?$stream_output_adapter@D@__crt_stdio_output@@@2@@__crt_stdio_output@@AEAA_N_N@Z 000000014005bff8     libucrt:output.obj
 0002:0000eff8       $unwind$??$type_case_integer@$07@?$output_processor@DV?$string_output_adapter@D@__crt_stdio_output@@V?$format_validation_base@DV?$string_output_adapter@D@__crt_stdio_output@@@2@@__crt_stdio_output@@AEAA_N_N@Z 000000014005bff8     libucrt:output.obj
 0002:0000eff8       $unwind$??$type_case_integer@$07@?$output_processor@DV?$string_output_adapter@D@__crt_stdio_output@@V?$standard_base@DV?$string_output_adapter@D@__crt_stdio_output@@@2@@__crt_stdio_output@@AEAA_N_N@Z 000000014005bff8     libucrt:output.obj
 0002:0000eff8       $unwind$??$type_case_integer@$07@?$output_processor@_WV?$stream_output_adapter@_W@__crt_stdio_output@@V?$standard_base@_WV?$stream_output_adapter@_W@__crt_stdio_output@@@2@@__crt_stdio_output@@AEAA_N_N@Z 000000014005bff8     libucrt:output.obj
 0002:0000eff8       $unwind$??$type_case_integer@$07@?$output_processor@_WV?$string_output_adapter@_W@__crt_stdio_output@@V?$standard_base@_WV?$string_output_adapter@_W@__crt_stdio_output@@@2@@__crt_stdio_output@@AEAA_N_N@Z 000000014005bff8     libucrt:output.obj
 0002:0000eff8       $unwind$??$type_case_integer@$09@?$output_processor@DV?$stream_output_adapter@D@__crt_stdio_output@@V?$standard_base@DV?$stream_output_adapter@D@__crt_stdio_output@@@2@@__crt_stdio_output@@AEAA_N_N@Z 000000014005bff8     libucrt:output.obj
 0002:0000eff8       $unwind$??$type_case_integer@$09@?$output_processor@DV?$string_output_adapter@D@__crt_stdio_output@@V?$format_validation_base@DV?$string_output_adapter@D@__crt_stdio_output@@@2@@__crt_stdio_output@@AEAA_N_N@Z 000000014005bff8     libucrt:output.obj
 0002:0000eff8       $unwind$??$type_case_integer@$09@?$output_processor@DV?$string_output_adapter@D@__crt_stdio_output@@V?$standard_base@DV?$string_output_adapter@D@__crt_stdio_output@@@2@@__crt_stdio_output@@AEAA_N_N@Z 000000014005bff8     libucrt:output.obj
 0002:0000eff8       $unwind$??$type_case_integer@$09@?$output_processor@_WV?$stream_output_adapter@_W@__crt_stdio_output@@V?$standard_base@_WV?$stream_output_adapter@_W@__crt_stdio_output@@@2@@__crt_stdio_output@@AEAA_N_N@Z 000000014005bff8     libucrt:output.obj
 0002:0000eff8       $unwind$??$type_case_integer@$09@?$output_processor@_WV?$string_output_adapter@_W@__crt_stdio_output@@V?$standard_base@_WV?$string_output_adapter@_W@__crt_stdio_output@@@2@@__crt_stdio_output@@AEAA_N_N@Z 000000014005bff8     libucrt:output.obj
 0002:0000eff8       $unwind$??$type_case_integer@$0BA@@?$output_processor@DV?$stream_output_adapter@D@__crt_stdio_output@@V?$standard_base@DV?$stream_output_adapter@D@__crt_stdio_output@@@2@@__crt_stdio_output@@AEAA_N_N@Z 000000014005bff8     libucrt:output.obj
 0002:0000eff8       $unwind$??$type_case_integer@$0BA@@?$output_processor@DV?$string_output_adapter@D@__crt_stdio_output@@V?$format_validation_base@DV?$string_output_adapter@D@__crt_stdio_output@@@2@@__crt_stdio_output@@AEAA_N_N@Z 000000014005bff8     libucrt:output.obj
 0002:0000eff8       $unwind$??$type_case_integer@$0BA@@?$output_processor@DV?$string_output_adapter@D@__crt_stdio_output@@V?$standard_base@DV?$string_output_adapter@D@__crt_stdio_output@@@2@@__crt_stdio_output@@AEAA_N_N@Z 000000014005bff8     libucrt:output.obj
 0002:0000eff8       $unwind$??$type_case_integer@$0BA@@?$output_processor@_WV?$stream_output_adapter@_W@__crt_stdio_output@@V?$standard_base@_WV?$stream_output_adapter@_W@__crt_stdio_output@@@2@@__crt_stdio_output@@AEAA_N_N@Z 000000014005bff8     libucrt:output.obj
 0002:0000eff8       $unwind$??$type_case_integer@$0BA@@?$output_processor@_WV?$string_output_adapter@_W@__crt_stdio_output@@V?$standard_base@_WV?$string_output_adapter@_W@__crt_stdio_output@@@2@@__crt_stdio_output@@AEAA_N_N@Z 000000014005bff8     libucrt:output.obj
 0002:0000f00c       $unwind$??$?RV<lambda_d854c62834386a3b23916ad6dae2782d>@@AEAV<lambda_303760bc4008a2b3ec4768a30b06a80c>@@V<lambda_4780a7ea4f8cbd2590aec34bd14e2bbf>@@@?$__crt_seh_guarded_call@H@@QEAAH$$QEAV<lambda_d854c62834386a3b23916ad6dae2782d>@@AEAV<lambda_303760bc4008a2b3ec4768a30b06a80c>@@$$QEAV<lambda_4780a7ea4f8cbd2590aec34bd14e2bbf>@@@Z 000000014005c00c     libucrt:output.obj
 0002:0000f030       $unwind$??$?RV<lambda_613eff765f5c257adf68e381dfe80f05>@@AEAV<lambda_ebf663be9fcd9e0b17ed57bdb95b0759>@@V<lambda_872abebd861b7db59b42e49ea65623b0>@@@?$__crt_seh_guarded_call@H@@QEAAH$$QEAV<lambda_613eff765f5c257adf68e381dfe80f05>@@AEAV<lambda_ebf663be9fcd9e0b17ed57bdb95b0759>@@$$QEAV<lambda_872abebd861b7db59b42e49ea65623b0>@@@Z 000000014005c030     libucrt:output.obj
 0002:0000f054       $unwind$??$parse_integer@KV?$c_string_character_source@_W@__crt_strtox@@$0A@@__crt_strtox@@YAKAEAV__crt_cached_ptd_host@@V?$c_string_character_source@_W@0@H_N@Z 000000014005c054     libucrt:output.obj
 0002:0000f070       $unwind$?fp_format_e_internal@@YAHQEAD_KH_NIQEAU_strflt@@2AEAV__crt_cached_ptd_host@@@Z 000000014005c070     libucrt:cvt.obj
 0002:0000f070       $unwind$??$parse_integer@KV?$c_string_character_source@D@__crt_strtox@@$0A@@__crt_strtox@@YAKAEAV__crt_cached_ptd_host@@V?$c_string_character_source@D@0@H_N@Z 000000014005c070     libucrt:output.obj
 0002:0000f08c       $unwind$__stdio_common_vsscanf 000000014005c08c     libucrt:input.obj
 0002:0000f0ac       $unwind$?divide@__crt_strtox@@YA_KAEAUbig_integer@1@AEBU21@@Z 000000014005c0ac     libucrt:input.obj
 0002:0000f0c4       $chain$0$?divide@__crt_strtox@@YA_KAEAUbig_integer@1@AEBU21@@Z 000000014005c0c4     libucrt:input.obj
 0002:0000f0d8       $chain$1$?divide@__crt_strtox@@YA_KAEAUbig_integer@1@AEBU21@@Z 000000014005c0d8     libucrt:input.obj
 0002:0000f0e8       $unwind$?assemble_floating_point_value@__crt_strtox@@YA?AW4SLD_STATUS@@_KH_N1AEBVfloating_point_value@1@@Z 000000014005c0e8     libucrt:input.obj
 0002:0000f100       $unwind$?assemble_floating_point_value_from_big_integer@__crt_strtox@@YA?AW4SLD_STATUS@@AEBUbig_integer@1@I_N1AEBVfloating_point_value@1@@Z 000000014005c100     libucrt:input.obj
 0002:0000f11c       $unwind$?convert_decimal_string_to_floating_type_common@__crt_strtox@@YA?AW4SLD_STATUS@@AEBUfloating_point_string@1@AEBVfloating_point_value@1@@Z 000000014005c11c     libucrt:input.obj
 0002:0000f140       $unwind$?scan_scanset_range@?$format_string_parser@D@__crt_stdio_input@@AEAA_NXZ 000000014005c140     libucrt:input.obj
 0002:0000f154       $unwind$?write_character@?$input_processor@DV?$string_input_adapter@D@__crt_stdio_input@@@__crt_stdio_input@@AEAA_NQEFA_W_KAEAPEFA_WAEA_KD@Z 000000014005c154     libucrt:input.obj
 0002:0000f164       $unwind$??$process_floating_point_specifier_t@M@?$input_processor@DV?$string_input_adapter@D@__crt_stdio_input@@@__crt_stdio_input@@AEAA_NXZ 000000014005c164     libucrt:input.obj
 0002:0000f164       $unwind$??$process_floating_point_specifier_t@N@?$input_processor@DV?$string_input_adapter@D@__crt_stdio_input@@@__crt_stdio_input@@AEAA_NXZ 000000014005c164     libucrt:input.obj
 0002:0000f170       $unwind$??$parse_integer@_KV?$input_adapter_character_source@V?$string_input_adapter@D@__crt_stdio_input@@@__crt_strtox@@@__crt_strtox@@YA_KQEAU__crt_locale_pointers@@V?$input_adapter_character_source@V?$string_input_adapter@D@__crt_stdio_input@@@0@H_N@Z 000000014005c170     libucrt:input.obj
 0002:0000f188       $unwind$?should_round_up@@YA_NQEBN_KFW4__acrt_rounding_mode@@@Z 000000014005c188     libucrt:cvt.obj
 0002:0000f188       $unwind$_chsize_nolock_internal 000000014005c188     libucrt:chsize.obj
 0002:0000f188       $unwind$??$parse_command_line@D@@YAXPEADPEAPEAD0PEA_K2@Z 000000014005c188     libucrt:argv_parsing.obj
 0002:0000f188       $unwind$??$process_string_specifier_tchar@D@?$input_processor@DV?$string_input_adapter@D@__crt_stdio_input@@@__crt_stdio_input@@AEAA_NW4conversion_mode@1@D@Z 000000014005c188     libucrt:input.obj
 0002:0000f1a4       $unwind$??$process_string_specifier_tchar@_W@?$input_processor@DV?$string_input_adapter@D@__crt_stdio_input@@@__crt_stdio_input@@AEAA_NW4conversion_mode@1@_W@Z 000000014005c1a4     libucrt:input.obj
 0002:0000f1bc       $unwind$??$parse_floating_point@V?$input_adapter_character_source@V?$string_input_adapter@D@__crt_stdio_input@@@__crt_strtox@@M@__crt_strtox@@YA?AW4SLD_STATUS@@QEAU__crt_locale_pointers@@V?$input_adapter_character_source@V?$string_input_adapter@D@__crt_stdio_input@@@0@QEAM@Z 000000014005c1bc     libucrt:input.obj
 0002:0000f1bc       $unwind$??$parse_floating_point@V?$input_adapter_character_source@V?$string_input_adapter@D@__crt_stdio_input@@@__crt_strtox@@N@__crt_strtox@@YA?AW4SLD_STATUS@@QEAU__crt_locale_pointers@@V?$input_adapter_character_source@V?$string_input_adapter@D@__crt_stdio_input@@@0@QEAN@Z 000000014005c1bc     libucrt:input.obj
 0002:0000f1d4       $unwind$??$parse_floating_point_from_source@V?$input_adapter_character_source@V?$string_input_adapter@D@__crt_stdio_input@@@__crt_strtox@@@__crt_strtox@@YA?AW4floating_point_parse_result@0@QEAU__crt_locale_pointers@@AEAV?$input_adapter_character_source@V?$string_input_adapter@D@__crt_stdio_input@@@0@AEAUfloating_point_string@0@@Z 000000014005c1d4     libucrt:input.obj
 0002:0000f1ec       $unwind$??$parse_floating_point_possible_infinity@DV?$input_adapter_character_source@V?$string_input_adapter@D@__crt_stdio_input@@@__crt_strtox@@_K@__crt_strtox@@YA?AW4floating_point_parse_result@0@AEADAEAV?$input_adapter_character_source@V?$string_input_adapter@D@__crt_stdio_input@@@0@_K@Z 000000014005c1ec     libucrt:input.obj
 0002:0000f1f8       $unwind$??$parse_floating_point_possible_nan@DV?$input_adapter_character_source@V?$string_input_adapter@D@__crt_stdio_input@@@__crt_strtox@@_K@__crt_strtox@@YA?AW4floating_point_parse_result@0@AEADAEAV?$input_adapter_character_source@V?$string_input_adapter@D@__crt_stdio_input@@@0@_K@Z 000000014005c1f8     libucrt:input.obj
 0002:0000f204       $unwind$strrchr            000000014005c204     libvcruntime:strrchr.obj
 0002:0000f204       $unwind$??$parse_floating_point_possible_nan_is_ind@DV?$input_adapter_character_source@V?$string_input_adapter@D@__crt_stdio_input@@@__crt_strtox@@@__crt_strtox@@YA_NAEADAEAV?$input_adapter_character_source@V?$string_input_adapter@D@__crt_stdio_input@@@0@@Z 000000014005c204     libucrt:input.obj
 0002:0000f204       $unwind$??$parse_floating_point_possible_nan_is_snan@DV?$input_adapter_character_source@V?$string_input_adapter@D@__crt_stdio_input@@@__crt_strtox@@@__crt_strtox@@YA_NAEADAEAV?$input_adapter_character_source@V?$string_input_adapter@D@__crt_stdio_input@@@0@@Z 000000014005c204     libucrt:input.obj
 0002:0000f20c       $unwind$fwprintf           000000014005c20c     libucrt:assert.obj
 0002:0000f218       $unwind$swprintf           000000014005c218     libucrt:assert.obj
 0002:0000f228       $unwind$?common_assert_to_stderr_direct@@YAXQEB_W0I@Z 000000014005c228     libucrt:assert.obj
 0002:0000f244       $unwind$??$common_assert_to_message_box@_W@@YAXQEB_W0IQEAX@Z 000000014005c244     libucrt:assert.obj
 0002:0000f260       $unwind$??$common_assert_to_message_box_build_string@_W@@YAXQEA_W_KQEB_W2IQEAX@Z 000000014005c260     libucrt:assert.obj
 0002:0000f280       $unwind$atan2f             000000014005c280     libucrt:atan2f.obj
 0002:0000f2a0       $xdatasym                  000000014005c2a0     libucrt:cosf.obj
 0002:0000f2a8       $unwind$fmodf              000000014005c2a8     libucrt:fmodf.obj
 0002:0000f2a8       $unwind$sqrtf              000000014005c2a8     libucrt:sqrtf.obj
 0002:0000f2b0       $xdatasym                  000000014005c2b0     libucrt:powf.obj
 0002:0000f2c0       $xdatasym                  000000014005c2c0     libucrt:sinf.obj
 0002:0000f2c8       $xdatasym                  000000014005c2c8     libucrt:tanf.obj
 0002:0000f2d0       $unwind$_configure_narrow_argv 000000014005c2d0     libucrt:argv_parsing.obj
 0002:0000f2e4       $unwind$__dcrt_uninitialize_environments_nolock 000000014005c2e4     libucrt:environment_initialization.obj
 0002:0000f2f4       $stateUnwindMap$__dcrt_uninitialize_environments_nolock 000000014005c2f4     libucrt:environment_initialization.obj
 0002:0000f2f4       $stateUnwindMap$?common_exit@@YAXHW4_crt_exit_cleanup_mode@@W4_crt_exit_return_mode@@@Z 000000014005c2f4     libucrt:exit.obj
 0002:0000f2f4       $stateUnwindMap$_execute_onexit_table 000000014005c2f4     libucrt:onexit.obj
 0002:0000f2fc       $unwind$??$free_environment@D@@YAXQEAPEAD@Z 000000014005c2fc     libucrt:environment_initialization.obj
 0002:0000f2fc       $unwind$??$free_environment@_W@@YAXQEAPEA_W@Z 000000014005c2fc     libucrt:environment_initialization.obj
 0002:0000f2fc       $unwind$_initterm          000000014005c2fc     libucrt:initterm.obj
 0002:0000f308       $unwind$?try_cor_exit_process@@YAXI@Z 000000014005c308     libucrt:exit.obj
 0002:0000f318       $ip2state$?try_cor_exit_process@@YAXI@Z 000000014005c318     libucrt:exit.obj
 0002:0000f320       $unwind$?common_exit@@YAXHW4_crt_exit_cleanup_mode@@W4_crt_exit_return_mode@@@Z 000000014005c320     libucrt:exit.obj
 0002:0000f338       $ip2state$?common_exit@@YAXHW4_crt_exit_cleanup_mode@@W4_crt_exit_return_mode@@@Z 000000014005c338     libucrt:exit.obj
 0002:0000f340       $unwind$??R<lambda_6e4b09c48022b2350581041d5f6b0c4c>@@QEBA@XZ 000000014005c340     libucrt:exit.obj
 0002:0000f360       $unwind$??$?RV<lambda_d80eeec6fff315bfe5c115232f3240e3>@@AEAV<lambda_6e4b09c48022b2350581041d5f6b0c4c>@@V<lambda_2358e3775559c9db80273638284d5e45>@@@?$__crt_seh_guarded_call@X@@QEAAX$$QEAV<lambda_d80eeec6fff315bfe5c115232f3240e3>@@AEAV<lambda_6e4b09c48022b2350581041d5f6b0c4c>@@$$QEAV<lambda_2358e3775559c9db80273638284d5e45>@@@Z 000000014005c360     libucrt:exit.obj
 0002:0000f384       $unwind$_setmode_nolock    000000014005c384     libucrt:setmode.obj
 0002:0000f394       $unwind$__acrt_uninitialize_locale 000000014005c394     libucrt:wsetlocale.obj
 0002:0000f394       $unwind$__acrt_get_sigabrt_handler 000000014005c394     libucrt:signal.obj
 0002:0000f39c       $unwind$??$?RV<lambda_410d79af7f07d98d83a3f525b3859a53>@@AEAV<lambda_3e16ef9562a7dcce91392c22ab16ea36>@@V<lambda_38119f0e861e05405d8a144b9b982f0a>@@@?$__crt_seh_guarded_call@X@@QEAAX$$QEAV<lambda_410d79af7f07d98d83a3f525b3859a53>@@AEAV<lambda_3e16ef9562a7dcce91392c22ab16ea36>@@$$QEAV<lambda_38119f0e861e05405d8a144b9b982f0a>@@@Z 000000014005c39c     libucrt:wsetlocale.obj
 0002:0000f3c4       $unwind$_register_onexit_function 000000014005c3c4     libucrt:onexit.obj
 0002:0000f3cc       $unwind$_execute_onexit_table 000000014005c3cc     libucrt:onexit.obj
 0002:0000f3e0       $ip2state$_execute_onexit_table 000000014005c3e0     libucrt:onexit.obj
 0002:0000f3e8       $unwind$??R<lambda_22ebabd17bc4fa466a2aca6d8deb888d>@@QEBAHXZ 000000014005c3e8     libucrt:onexit.obj
 0002:0000f400       $unwind$??$?RV<lambda_638799b9deba96c50f710eeac98168cd>@@AEAV<lambda_22ebabd17bc4fa466a2aca6d8deb888d>@@V<lambda_a6f7d7db0129f75315ebf26d50c089f1>@@@?$__crt_seh_guarded_call@H@@QEAAH$$QEAV<lambda_638799b9deba96c50f710eeac98168cd>@@AEAV<lambda_22ebabd17bc4fa466a2aca6d8deb888d>@@$$QEAV<lambda_a6f7d7db0129f75315ebf26d50c089f1>@@@Z 000000014005c400     libucrt:onexit.obj
 0002:0000f424       $unwind$??$?RV<lambda_7777bce6b2f8c936911f934f8298dc43>@@AEAV<lambda_f03950bc5685219e0bcd2087efbe011e>@@V<lambda_3883c3dff614d5e0c5f61bb1ac94921c>@@@?$__crt_seh_guarded_call@H@@QEAAH$$QEAV<lambda_7777bce6b2f8c936911f934f8298dc43>@@AEAV<lambda_f03950bc5685219e0bcd2087efbe011e>@@$$QEAV<lambda_3883c3dff614d5e0c5f61bb1ac94921c>@@@Z 000000014005c424     libucrt:onexit.obj
 0002:0000f448       $unwind$terminate          000000014005c448     libucrt:terminate.obj
 0002:0000f468       $unwind$_free_base         000000014005c468     libucrt:free_base.obj
 0002:0000f468       $unwind$?destroy_fls@@YAXPEAX@Z 000000014005c468     libucrt:per_thread_data.obj
 0002:0000f468       $unwind$__acrt_locale_free_numeric 000000014005c468     libucrt:initnum.obj
 0002:0000f468       $unwind$__acrt_locale_free_lc_time_if_unreferenced 000000014005c468     libucrt:locale_refcounting.obj
 0002:0000f470       $unwind$__acrt_call_reportfault 000000014005c470     libucrt:invalid_parameter.obj
 0002:0000f490       $unwind$_invalid_parameter 000000014005c490     libucrt:invalid_parameter.obj
 0002:0000f49c       $unwind$_isctype_l         000000014005c49c     libucrt:isctype.obj
 0002:0000f4b8       $unwind$?construct_ptd_array@@YAXQEAU__acrt_ptd@@@Z 000000014005c4b8     libucrt:per_thread_data.obj
 0002:0000f4c0       $unwind$?destroy_ptd_array@@YAXQEAU__acrt_ptd@@@Z 000000014005c4c0     libucrt:per_thread_data.obj
 0002:0000f4c8       $unwind$??$?RV<lambda_0ae27a3a962d80f24befdcbee591983d>@@AEAV<lambda_8d0ee55de4b1038c4002e0adecdf1839>@@V<lambda_dc504788e8f1664fe9b84e20bfb512f2>@@@?$__crt_seh_guarded_call@X@@QEAAX$$QEAV<lambda_0ae27a3a962d80f24befdcbee591983d>@@AEAV<lambda_8d0ee55de4b1038c4002e0adecdf1839>@@$$QEAV<lambda_dc504788e8f1664fe9b84e20bfb512f2>@@@Z 000000014005c4c8     libucrt:per_thread_data.obj
 0002:0000f4ec       $unwind$??$?RV<lambda_aa87e3671a710a21b5dc78c0bdf72e11>@@AEAV<lambda_92619d2358a28f41a33ba319515a20b9>@@V<lambda_6992ecaafeb10aed2b74cb1fae11a551>@@@?$__crt_seh_guarded_call@X@@QEAAX$$QEAV<lambda_aa87e3671a710a21b5dc78c0bdf72e11>@@AEAV<lambda_92619d2358a28f41a33ba319515a20b9>@@$$QEAV<lambda_6992ecaafeb10aed2b74cb1fae11a551>@@@Z 000000014005c4ec     libucrt:per_thread_data.obj
 0002:0000f510       $unwind$??$?RV<lambda_f2e299630e499de9f9a165e60fcd3db5>@@AEAV<lambda_2ae9d31cdba2644fcbeaf08da7c24588>@@V<lambda_40d01ff24d0e7b3814fdbdcee8eab3c7>@@@?$__crt_seh_guarded_call@X@@QEAAX$$QEAV<lambda_f2e299630e499de9f9a165e60fcd3db5>@@AEAV<lambda_2ae9d31cdba2644fcbeaf08da7c24588>@@$$QEAV<lambda_40d01ff24d0e7b3814fdbdcee8eab3c7>@@@Z 000000014005c510     libucrt:per_thread_data.obj
 0002:0000f534       $unwind$??$?RV<lambda_2d41944a1d46af3157314b8a01080d33>@@AEAV<lambda_8f455de75cd7d7f24b4096f044d8b9e6>@@V<lambda_aa500f224e6afead328df44964fe2772>@@@?$__crt_seh_guarded_call@X@@QEAAX$$QEAV<lambda_2d41944a1d46af3157314b8a01080d33>@@AEAV<lambda_8f455de75cd7d7f24b4096f044d8b9e6>@@$$QEAV<lambda_aa500f224e6afead328df44964fe2772>@@@Z 000000014005c534     libucrt:per_thread_data.obj
 0002:0000f558       $unwind$_except2           000000014005c558     libucrt:fpexcept.obj
 0002:0000f57c       $unwind$_handle_exc        000000014005c57c     libucrt:fpexcept.obj
 0002:0000f59c       $unwind$_raise_exc         000000014005c59c     libucrt:fpexcept.obj
 0002:0000f59c       $unwind$_raise_excf        000000014005c59c     libucrt:fpexcept.obj
 0002:0000f5a4       $unwind$_umatherr          000000014005c5a4     libucrt:fpexcept.obj
 0002:0000f5b0       $unwind$_raise_exc_ex      000000014005c5b0     libucrt:fpexcept.obj
 0002:0000f5c4       $unwind$_ctrlfp            000000014005c5c4     libucrt:fpctrl.obj
 0002:0000f5ec       $unwind$__acrt_initialize_winapi_thunks 000000014005c5ec     libucrt:winapi_thunks.obj
 0002:0000f5ec       $unwind$__acrt_fenv_get_control 000000014005c5ec     libucrt:_fenvutils.obj
 0002:0000f5f4       $unwind$?fp_format_f@@YAHQEBNQEAD_K12HW4__acrt_rounding_mode@@AEAV__crt_cached_ptd_host@@@Z 000000014005c5f4     libucrt:cvt.obj
 0002:0000f5f4       $unwind$__acrt_LCMapStringEx 000000014005c5f4     libucrt:winapi_thunks.obj
 0002:0000f608       $unwind$__acrt_is_interactive 000000014005c608     libucrt:winapi_thunks.obj
 0002:0000f61c       $unwind$_fcloseall         000000014005c61c     libucrt:closeall.obj
 0002:0000f640       $unwind$__acrt_initialize_lowio 000000014005c640     libucrt:ioinit.obj
 0002:0000f660       $unwind$?initialize_inherited_file_handles_nolock@@YAXXZ 000000014005c660     libucrt:ioinit.obj
 0002:0000f67c       $unwind$?__acrt_stdio_allocate_stream@@YA?AV__crt_stdio_stream@@XZ 000000014005c67c     libucrt:stream.obj
 0002:0000f69c       $unwind$?find_or_allocate_unused_stream_nolock@@YA?AV__crt_stdio_stream@@XZ 000000014005c69c     libucrt:stream.obj
 0002:0000f6b0       $unwind$_openfile          000000014005c6b0     libucrt:openfile.obj
 0002:0000f6c4       $unwind$_close_internal    000000014005c6c4     libucrt:close.obj
 0002:0000f6cc       $unwind$??$?RV<lambda_ad8af0d99a0adf03d037d7dffe354bb5>@@AEAV<lambda_c9ba49e555ba839a7b07aa3fbecb7617>@@V<lambda_2f1ebd5d68526518146ae959c9e734c8>@@@?$__crt_seh_guarded_call@H@@QEAAH$$QEAV<lambda_ad8af0d99a0adf03d037d7dffe354bb5>@@AEAV<lambda_c9ba49e555ba839a7b07aa3fbecb7617>@@$$QEAV<lambda_2f1ebd5d68526518146ae959c9e734c8>@@@Z 000000014005c6cc     libucrt:close.obj
 0002:0000f6f0       $unwind$_commit            000000014005c6f0     libucrt:commit.obj
 0002:0000f6f8       $unwind$??$?RV<lambda_a37b2b86f63e897a80ea819b0eb08c01>@@AEAV<lambda_38ce7e780aa69e748d6df282ebc68efe>@@V<lambda_99fb1378e971ab6e7edea83e3a7a83a2>@@@?$__crt_seh_guarded_call@H@@QEAAH$$QEAV<lambda_a37b2b86f63e897a80ea819b0eb08c01>@@AEAV<lambda_38ce7e780aa69e748d6df282ebc68efe>@@$$QEAV<lambda_99fb1378e971ab6e7edea83e3a7a83a2>@@@Z 000000014005c6f8     libucrt:commit.obj
 0002:0000f71c       $unwind$_write_nolock      000000014005c71c     libucrt:write.obj
 0002:0000f734       $unwind$_write_internal    000000014005c734     libucrt:write.obj
 0002:0000f764       $unwind$?write_double_translated_ansi_nolock@@YA?AUwrite_result@?A0x17268360@@HQEBDIAEAV__crt_cached_ptd_host@@@Z 000000014005c764     libucrt:write.obj
 0002:0000f790       $ip2state$?write_double_translated_ansi_nolock@@YA?AUwrite_result@?A0x17268360@@HQEBDIAEAV__crt_cached_ptd_host@@@Z 000000014005c790     libucrt:write.obj
 0002:0000f798       $unwind$?write_text_ansi_nolock@@YA?AUwrite_result@?A0x17268360@@HQEBDI@Z 000000014005c798     libucrt:write.obj
 0002:0000f798       $unwind$?write_text_utf16le_nolock@@YA?AUwrite_result@?A0x17268360@@HQEBDI@Z 000000014005c798     libucrt:write.obj
 0002:0000f7b8       $unwind$?write_text_utf8_nolock@@YA?AUwrite_result@?A0x17268360@@HQEBDI@Z 000000014005c7b8     libucrt:write.obj
 0002:0000f7dc       $unwind$_read              000000014005c7dc     libucrt:read.obj
 0002:0000f80c       $unwind$_read_nolock       000000014005c80c     libucrt:read.obj
 0002:0000f820       $unwind$?translate_ansi_or_utf8_nolock@@YAHHQEAD_KQEA_W1@Z 000000014005c820     libucrt:read.obj
 0002:0000f838       $unwind$??$translate_text_mode_nolock@_W@@YAHHQEA_W_K@Z 000000014005c838     libucrt:read.obj
 0002:0000f84c       $unwind$??$common_lseek@_J@@YA_JH_JHAEAV__crt_cached_ptd_host@@@Z 000000014005c84c     libucrt:lseek.obj
 0002:0000f87c       $unwind$__acrt_fp_format   000000014005c87c     libucrt:cvt.obj
 0002:0000f88c       $unwind$?fp_format_a@@YAHQEBNPEAD_KQEAD2H_NIW4__acrt_rounding_mode@@AEAV__crt_cached_ptd_host@@@Z 000000014005c88c     libucrt:cvt.obj
 0002:0000f8a8       $unwind$?fp_format_g@@YAHQEBNQEAD_K12H_NIW4__acrt_rounding_mode@@AEAV__crt_cached_ptd_host@@@Z 000000014005c8a8     libucrt:cvt.obj
 0002:0000f8c0       $unwind$_wctomb_internal   000000014005c8c0     libucrt:wctomb.obj
 0002:0000f8d4       $unwind$_fputwc_nolock_internal 000000014005c8d4     libucrt:fputwc.obj
 0002:0000f8f0       $unwind$__acrt_stdio_end_temporary_buffering_nolock 000000014005c8f0     libucrt:_sftbuf.obj
 0002:0000f8f8       $unwind$__acrt_GetModuleFileNameA 000000014005c8f8     libucrt:getmodulefilenamea.obj
 0002:0000f914       $unwind$__dcrt_write_console 000000014005c914     libucrt:initcon.obj
 0002:0000f914       $unwind$??$__acrt_convert_wcs_mbs_cp@_WDV<lambda_f788ae46380686e8b737efdd8c720d07>@@U__crt_win32_buffer_no_resizing@@@@YAHQEB_WAEAV?$__crt_win32_buffer@DU__crt_win32_buffer_no_resizing@@@@AEBV<lambda_f788ae46380686e8b737efdd8c720d07>@@I@Z 000000014005c914     libucrt:getmodulefilenamea.obj
 0002:0000f928       $unwind$??$?RV<lambda_9291da6fb19fed9e7668d36b7e9903ee>@@AEAV<lambda_e8d85a8178367c0d1135ba66de989cf6>@@V<lambda_2aa1c5fac2b3ecd63b0b04056e47917d>@@@?$__crt_seh_guarded_call@H@@QEAAH$$QEAV<lambda_9291da6fb19fed9e7668d36b7e9903ee>@@AEAV<lambda_e8d85a8178367c0d1135ba66de989cf6>@@$$QEAV<lambda_2aa1c5fac2b3ecd63b0b04056e47917d>@@@Z 000000014005c928     libucrt:setvbuf.obj
 0002:0000f94c       $unwind$raise              000000014005c94c     libucrt:signal.obj
 0002:0000f988       $unwind$??$?RV<lambda_450d765d439847d4c735a33c368b5fc0>@@AEAV<lambda_44731a7d0e6d81c3e6aa82d741081786>@@V<lambda_601a2a7da3b7a96e9554ac7215c4b07c>@@@?$__crt_seh_guarded_call@P6AXH@Z@@QEAAP6AXH@Z$$QEAV<lambda_450d765d439847d4c735a33c368b5fc0>@@AEAV<lambda_44731a7d0e6d81c3e6aa82d741081786>@@$$QEAV<lambda_601a2a7da3b7a96e9554ac7215c4b07c>@@@Z 000000014005c988     libucrt:signal.obj
 0002:0000f9ac       $unwind$_call_matherr      000000014005c9ac     libucrt:libm_error.obj
 0002:0000f9b4       $unwind$_handle_error      000000014005c9b4     libucrt:libm_error.obj
 0002:0000f9b4       $unwind$_handle_errorf     000000014005c9b4     libucrt:libm_error.obj
 0002:0000f9d8       $xdatasym                  000000014005c9d8     libucrt:remainder_piby2f_forasm.obj
 0002:0000f9e0       $xdatasym                  000000014005c9e0     libucrt:remainder_piby2_forfma3.obj
 0002:0000f9ec       $unwind$_sincosf_special   000000014005c9ec     libucrt:sincos_special.obj
 0002:0000f9f4       $unwind$__acrt_initialize_fma3 000000014005c9f4     libucrt:fma3_available.obj
 0002:0000f9fc       $unwind$_powf_special      000000014005c9fc     libucrt:pow_special.obj
 0002:0000fa08       $xdatasym                  000000014005ca08     libucrt:remainder_piby2f_forc.obj
 0002:0000fa18       $unwind$??$common_expand_argv_wildcards@D@@YAHQEAPEADQEAPEAPEAD@Z 000000014005ca18     libucrt:argv_wildcards.obj
 0002:0000fa30       $unwind$__dcrt_get_narrow_environment_from_os 000000014005ca30     libucrt:get_environment_from_os.obj
 0002:0000fa30       $unwind$??$__acrt_convert_wcs_mbs_cp@_WDV<lambda_d8593a27d1aa8c02be35c86a17d324c4>@@U__crt_win32_buffer_internal_dynamic_resizing@@@@YAHQEB_WAEAV?$__crt_win32_buffer@DU__crt_win32_buffer_internal_dynamic_resizing@@@@AEBV<lambda_d8593a27d1aa8c02be35c86a17d324c4>@@I@Z 000000014005ca30     libucrt:argv_wildcards.obj
 0002:0000fa48       $unwind$??$expand_argument_wildcards@D@@YAHQEAD0AEAV?$argument_list@D@?A0x5f5c8891@@@Z 000000014005ca48     libucrt:argv_wildcards.obj
 0002:0000fa68       $unwind$_setmbcp_nolock    000000014005ca68     libucrt:mbctype.obj
 0002:0000fa88       $unwind$__dcrt_lowio_ensure_console_output_initialized 000000014005ca88     libucrt:initcon.obj
 0002:0000fa88       $unwind$?__mbrtowc_utf8@__crt_mbstring@@YA_KPEA_WPEBD_KPEAU_Mbstatet@@AEAV__crt_cached_ptd_host@@@Z 000000014005ca88     libucrt:mbrtowc.obj
 0002:0000fa88       $unwind$?getSystemCP@@YAHH@Z 000000014005ca88     libucrt:mbctype.obj
 0002:0000fa90       $unwind$?update_thread_multibyte_data_internal@@YAPEAU__crt_multibyte_data@@QEAU__acrt_ptd@@QEAPEAU1@@Z 000000014005ca90     libucrt:mbctype.obj
 0002:0000fab8       $unwind$?setmbcp_internal@@YAHH_NQEAU__acrt_ptd@@QEAPEAU__crt_multibyte_data@@@Z 000000014005cab8     libucrt:mbctype.obj
 0002:0000fad0       $unwind$?setSBUpLow@@YAXPEAU__crt_multibyte_data@@@Z 000000014005cad0     libucrt:mbctype.obj
 0002:0000faec       $unwind$??$?RV<lambda_efdfa57d1f175319df784efa44bb7b81>@@AEAV<lambda_5f0a4c1567f8adc6734073e5d1e1b35c>@@V<lambda_2e8a7d3640ea6ccb4c2413664c2db6fd>@@@?$__crt_seh_guarded_call@X@@QEAAX$$QEAV<lambda_efdfa57d1f175319df784efa44bb7b81>@@AEAV<lambda_5f0a4c1567f8adc6734073e5d1e1b35c>@@$$QEAV<lambda_2e8a7d3640ea6ccb4c2413664c2db6fd>@@@Z 000000014005caec     libucrt:mbctype.obj
 0002:0000fb10       $unwind$?x_ismbbtype_l@@YAHPEAU__crt_locale_pointers@@IHH@Z 000000014005cb10     libucrt:ismbbyte.obj
 0002:0000fb10       $unwind$_strnicmp_l        000000014005cb10     libucrt:strnicmp.obj
 0002:0000fb20       $unwind$__acrt_WideCharToMultiByte 000000014005cb20     libucrt:widechartomultibyte.obj
 0002:0000fb2c       $unwind$_alloc_osfhnd      000000014005cb2c     libucrt:osfinfo.obj
 0002:0000fb5c       $unwind$__acrt_lowio_destroy_handle_array 000000014005cb5c     libucrt:osfinfo.obj
 0002:0000fb6c       $unwind$__acrt_lowio_ensure_fh_exists 000000014005cb6c     libucrt:osfinfo.obj
 0002:0000fb98       $unwind$__acrt_locale_free_monetary 000000014005cb98     libucrt:initmon.obj
 0002:0000fba0       $unwind$__acrt_locale_free_time 000000014005cba0     libucrt:inittime.obj
 0002:0000fbb0       $unwind$__acrt_GetStringTypeA 000000014005cbb0     libucrt:getstringtypea.obj
 0002:0000fbd8       $unwind$__acrt_update_thread_locale_data 000000014005cbd8     libucrt:locale_refcounting.obj
 0002:0000fbfc       $unwind$_query_new_handler 000000014005cbfc     libucrt:new_handler.obj
 0002:0000fc20       $xdatasym                  000000014005cc20     libucrt:fpsr.obj
 0002:0000fc28       $unwind$_sopen_nolock      000000014005cc28     libucrt:open.obj
 0002:0000fc44       $unwind$_wsopen_nolock     000000014005cc44     libucrt:open.obj
 0002:0000fc64       $unwind$??$common_sopen_dispatch@D@@YAHQEBDHHHQEAHH@Z 000000014005cc64     libucrt:open.obj
 0002:0000fc88       $unwind$?fin$0@?0???$common_sopen_dispatch@D@@YAHQEBDHHHQEAHH@Z@4HA 000000014005cc88     libucrt:open.obj
 0002:0000fc90       $unwind$?decode_options@@YA?AUfile_options@?A0xa9d50aae@@HHH@Z 000000014005cc90     libucrt:open.obj
 0002:0000fca4       $unwind$?truncate_ctrl_z_if_present@@YAHH@Z 000000014005cca4     libucrt:open.obj
 0002:0000fcb4       $unwind$?configure_text_mode@@YAHHUfile_options@?A0xa9d50aae@@HAEAW4__crt_lowio_text_mode@@@Z 000000014005ccb4     libucrt:open.obj
 0002:0000fccc       $unwind$?__mbsrtowcs_utf8@__crt_mbstring@@YA_KPEA_WPEAPEBD_KPEAU_Mbstatet@@AEAV__crt_cached_ptd_host@@@Z 000000014005cccc     libucrt:mbrtowc.obj
 0002:0000fce4       $unwind$__acrt_fp_strflt_to_string 000000014005cce4     libucrt:_fptostr.obj
 0002:0000fd00       $unwind$__acrt_fltout      000000014005cd00     libucrt:cfout.obj
 0002:0000fd20       $unwind$??$write_buffer_nolock@D@@YA_NDV__crt_stdio_stream@@AEAV__crt_cached_ptd_host@@@Z 000000014005cd20     libucrt:_flsbuf.obj
 0002:0000fd34       $unwind$??$write_buffer_nolock@_W@@YA_N_WV__crt_stdio_stream@@AEAV__crt_cached_ptd_host@@@Z 000000014005cd34     libucrt:_flsbuf.obj
 0002:0000fd48       $unwind$__acrt_fenv_set_control 000000014005cd48     libucrt:_fenvutils.obj
 0002:0000fd58       $unwind$qsort              000000014005cd58     libucrt:qsort.obj
 0002:0000fd70       $chain$4$qsort             000000014005cd70     libucrt:qsort.obj
 0002:0000fd94       $chain$5$qsort             000000014005cd94     libucrt:qsort.obj
 0002:0000fda4       $unwind$strpbrk            000000014005cda4     libucrt:strpbrk.obj
 0002:0000fdb4       $unwind$fallbackMethod     000000014005cdb4     libucrt:strpbrk.obj
 0002:0000fdc4       $unwind$_mbsdec_l          000000014005cdc4     libucrt:mbsdec.obj
 0002:0000fdd0       $unwind$__acrt_LCMapStringA 000000014005cdd0     libucrt:lcmapstringa.obj
 0002:0000fde0       $unwind$?__acrt_LCMapStringA_stat@@YAHPEAU__crt_locale_pointers@@PEB_WKPEBDHPEADHHH@Z 000000014005cde0     libucrt:lcmapstringa.obj
 0002:0000fe08       $unwind$?__mbrtoc32_utf8@__crt_mbstring@@YA_KPEA_UPEBD_KPEAU_Mbstatet@@AEAV__crt_cached_ptd_host@@@Z 000000014005ce08     libucrt:mbrtoc32.obj
 0002:0000fe28       $xdatasym                  000000014005ce28     libucrt:log10.obj
 0002:0000fe34       $unwind$common_control87   000000014005ce34     libucrt:ieee.obj
 0002:0000fe60       $unwind$_log_special_common 000000014005ce60     libucrt:log_special.obj
 0002:0000fe6c       $unwind$_IsNonwritableInCurrentImage 000000014005ce6c     LIBCMT:pesect.obj
 0002:0000fe90       $xdatasym                  000000014005ce90     libvcruntime:memcmp.obj
 0002:00010540       .idata$6                   000000014005d540     SDL2:SDL2.dll
 0002:0001088a       .idata$6                   000000014005d88a     glew32:glew32.dll
 0002:00010940       .idata$6                   000000014005d940     OpenGL32:OPENGL32.dll
 0002:00010ae2       .idata$6                   000000014005dae2     kernel32:KERNEL32.dll
 0003:0000003c       ?stbi__l2h_gamma@@3MA      000000014005e03c     main_win.obj
 0003:00000040       ?stbi__stdio_callbacks@@3Ustbi_io_callbacks@@A 000000014005e040     main_win.obj
 0003:00000058       ?stbi__l2h_scale@@3MA      000000014005e058     main_win.obj
 0003:0000005c       ?stbi__h2l_gamma_i@@3MA    000000014005e05c     main_win.obj
 0003:00000060       ?stbi__h2l_scale_i@@3MA    000000014005e060     main_win.obj
 0003:00000064       ?first_row_filter@@3PAEA   000000014005e064     main_win.obj
 0003:00000070       ?levelStrings@@3PAPEBDA    000000014005e070     main_win.obj
 0003:000000a0       ?invalid_chunk@?JH@??stbi__parse_png_file@@YAHPEAUstbi__png@@HH@Z@4PADA 000000014005e0a0     main_win.obj
 0003:000000c0       ?mul_table@?1??stbi__shiftsigned@@YAHIHH@Z@4PAIA 000000014005e0c0     main_win.obj
 0003:000000e8       ?shift_table@?1??stbi__shiftsigned@@YAHIHH@Z@4PAIA 000000014005e0e8     main_win.obj
 0003:00000150       ?__vcrt_flsindex@@3KA      000000014005e150     libvcruntime:per_thread_data.obj
 0003:00000274       ?errno_no_memory@@3HA      000000014005e274     libucrt:errno.obj
 0003:00000278       ?doserrno_no_memory@@3KA   000000014005e278     libucrt:errno.obj
 0003:0000027c       ?__acrt_flsindex@@3KA      000000014005e27c     libucrt:per_thread_data.obj
 0003:000003ec       ?dazSupported@?1??_ctrlfp@@9@9 000000014005e3ec     libucrt:fpctrl.obj
 0003:00000770       _mbctypes                  000000014005e770     libucrt:mbctype.obj
 0003:00000880       _mbcasemaps                000000014005e880     libucrt:mbctype.obj
 0003:00000980       ?__rgctypeflag@@3PADA      000000014005e980     libucrt:mbctype.obj
 0003:00000990       ?__rgcode_page_info@@3PAUcode_page_info@@A 000000014005e990     libucrt:mbctype.obj
 0003:00000b30       ?__dcrt_lowio_console_output_handle@@3PEAXEA 000000014005eb30     libucrt:initcon.obj
 0003:00000b40       ?dazSupported@?1??common_control87@@9@9 000000014005eb40     libucrt:ieee.obj
 0003:0003bff0       ?stbi__vertically_flip_on_load_global@@3HA 0000000140099ff0     main_win.obj
 0003:0003bff4       ?stbi__unpremultiply_on_load_global@@3HA 0000000140099ff4     main_win.obj
 0003:0003bff8       ?stbi__de_iphone_flag_global@@3HA 0000000140099ff8     main_win.obj
 0003:0003bffc       ?nextTime@@3IA             0000000140099ffc     main_win.obj
 0003:0003c010       GS_ExceptionRecord         000000014009a010     LIBCMT:gs_report.obj
 0003:0003c0b0       GS_ContextRecord           000000014009a0b0     LIBCMT:gs_report.obj
 0003:0003c598       ?is_initialized_as_dll@@3_NA 000000014009a598     LIBCMT:utility.obj
 0003:0003c599       ?module_local_atexit_table_initialized@@3_NA 000000014009a599     LIBCMT:utility.obj
 0003:0003c5a0       ?module_local_atexit_table@@3U_onexit_table_t@@A 000000014009a5a0     LIBCMT:utility.obj
 0003:0003c5b8       ?module_local_at_quick_exit_table@@3U_onexit_table_t@@A 000000014009a5b8     LIBCMT:utility.obj
 0003:0003c5f0       ?__vcrt_startup_thread_ptd@@3U__vcrt_ptd@@A 000000014009a5f0     libvcruntime:per_thread_data.obj
 0003:0003c670       __vcrt_lock_table          000000014009a670     libvcruntime:locks.obj
 0003:0003c698       __vcrt_locks_initialized   000000014009a698     libvcruntime:locks.obj
 0003:0003c6e0       ?heap@@3V_HeapManager@@A   000000014009a6e0     libvcruntime:undname.obj
 0003:0003c708       ?module_handles@@3PAPEAUHINSTANCE__@@A 000000014009a708     libvcruntime:winapi_downlevel.obj
 0003:0003c720       ?function_pointers@@3PAPEAXA 000000014009a720     libvcruntime:winapi_downlevel.obj
 0003:0003c764       ?__acrt_app_type@@3W4_crt_app_type@@A 000000014009a764     libucrt:report_runtime_error.obj
 0003:0003c768       ?user_matherr@@3V?$dual_state_global@P6AHPEAU_exception@@@Z@__crt_state_management@@A 000000014009a768     libucrt:matherr.obj
 0003:0003c770       ?program_name@?1???$common_configure_argv@D@@YAHW4_crt_argv_mode@@@Z@4PADA 000000014009a770     libucrt:argv_parsing.obj
 0003:0003c898       ?empty_string@?1???$common_wincmdln@E@@YAPEAEXZ@4PAEA 000000014009a898     libucrt:argv_winmain.obj
 0003:0003c89c       ?c_termination_complete@@3JA 000000014009a89c     libucrt:exit.obj
 0003:0003c8a0       ?thread_local_exit_callback_func@@3P6AXPEAXK0@ZEA 000000014009a8a0     libucrt:exit.obj
 0003:0003c8b0       ?__acrt_global_new_mode@@3V?$dual_state_global@J@__crt_state_management@@A 000000014009a8b0     libucrt:new_mode.obj
 0003:0003c8e8       ?__acrt_invalid_parameter_handler@@3V?$dual_state_global@P6AXPEB_W00I_K@Z@__crt_state_management@@A 000000014009a8e8     libucrt:invalid_parameter.obj
 0003:0003c900       ?module_handles@@3PAPEAUHINSTANCE__@@A 000000014009a900     libucrt:winapi_thunks.obj
 0003:0003c9a0       ?encoded_function_pointers@@3PAPEAXA 000000014009a9a0     libucrt:winapi_thunks.obj
 0003:0003cea0       ?__acrt_lock_table@@3PAU_RTL_CRITICAL_SECTION@@A 000000014009aea0     libucrt:locks.obj
 0003:0003d0d0       ?__acrt_locks_initialized@@3IA 000000014009b0d0     libucrt:locks.obj
 0003:0003d0d8       ?internal_state@?1??_mbtowc_internal@@9@4U_Mbstatet@@A 000000014009b0d8     libucrt:mbtowc.obj
 0003:0003d0e0       ?enable_percent_n@@3_KA    000000014009b0e0     libucrt:printf_count_output.obj
 0003:0003d0f8       __acrt_error_mode          000000014009b0f8     libucrt:set_error_mode.obj
 0003:0003d100       ?ctrlc_action@@3V?$dual_state_global@P6AXH@Z@__crt_state_management@@A 000000014009b100     libucrt:signal.obj
 0003:0003d108       ?ctrlbreak_action@@3V?$dual_state_global@P6AXH@Z@__crt_state_management@@A 000000014009b108     libucrt:signal.obj
 0003:0003d110       ?abort_action@@3V?$dual_state_global@P6AXH@Z@__crt_state_management@@A 000000014009b110     libucrt:signal.obj
 0003:0003d118       ?term_action@@3V?$dual_state_global@P6AXH@Z@__crt_state_management@@A 000000014009b118     libucrt:signal.obj
 0003:0003d140       ?fSystemSet@@3HA           000000014009b140     libucrt:mbctype.obj
 0003:0003d144       ?initialized@?1??__acrt_initialize_multibyte@@9@4_NA 000000014009b144     libucrt:mbctype.obj
 0003:0003d178       ?state_cache@?1???$get_cached_win_policy@Udeveloper_information_policy_properties@?1??__acrt_get_developer_information_policy@@YA?AW4developer_information_policy@@XZ@@@YA?AW4developer_information_policy@@W4AppPolicyShowDeveloperDiagnostic@@@Z@4JA 000000014009b178     libucrt:win_policies.obj
 0003:0003d17c       ?state_cache@?1???$get_cached_win_policy@Uwindowing_model_policy_properties@?1??__acrt_get_windowing_model_policy@@YA?AW4windowing_model_policy@@XZ@@@YA?AW4windowing_model_policy@@W4AppPolicyWindowingModel@@@Z@4JA 000000014009b17c     libucrt:win_policies.obj
 0003:0003d198       ?__acrt_new_handler@@3V?$dual_state_global@P6AH_K@Z@__crt_state_management@@A 000000014009b198     libucrt:new_handler.obj
 0003:0003d1a8       ?internal_pst@?1??__mbrtoc32_utf8@__crt_mbstring@@YA_KPEA_UPEBD_KPEAU_Mbstatet@@AEAV__crt_cached_ptd_host@@@Z@4U3@A 000000014009b1a8     libucrt:mbrtoc32.obj
 0005:00000000       SetSmall                   000000014009f000     libvcruntime:memset.obj
 0005:00000040       SetSmallYmm                000000014009f040     libvcruntime:memset.obj
 0005:00000064       SetSmallYmmNT              000000014009f064     libvcruntime:memset.obj
 0005:00000088       SetSmallXmm                000000014009f088     libvcruntime:memset.obj
 0005:000000b0       MoveSmall                  000000014009f0b0     libvcruntime:memcpy.obj
 0005:000000f0       MoveSmallYmm               000000014009f0f0     libvcruntime:memcpy.obj
 0005:00000114       MoveSmallYmmNT             000000014009f114     libvcruntime:memcpy.obj
 0005:00000138       MoveSmallXmm               000000014009f138     libvcruntime:memcpy.obj
